(lp0
(dp1
S'strenghtList'
p2
(lp3
F-53.8
aF-53.8
aF-54.0
aF-59.4
aF-73.66666666666667
aF-74.0
aF-76.33333333333333
aF-77.0
aF-77.75
aF-78.0
aF-78.33333333333333
aF-79.66666666666667
asS'featureList'
p4
(lp5
S'00:0F:61:86:EC:21'
p6
aS'00:0F:61:86:EC:23'
p7
aS'00:0F:61:86:EC:20'
p8
aS'00:0F:61:86:EC:22'
p9
aS'00:0F:61:88:22:F7'
p10
aS'00:0F:61:88:22:F8'
p11
aS'42:C8:A0:41:42:80'
p12
aS'00:03:52:5C:26:C3'
p13
aS'00:03:52:5C:26:C1'
p14
aS'00:03:52:5C:26:C0'
p15
aS'00:03:52:5C:26:C2'
p16
aS'00:0F:61:59:DB:82'
p17
asS'label'
p18
S'robotroom'
p19
sa(dp20
g2
(lp21
F-65.2
aF-65.6
aF-66.0
aF-66.2
aF-69.8
aF-70.0
aF-70.0
aF-71.8
aF-77.0
aF-78.5
aF-78.75
aF-79.0
asg4
(lp22
S'00:0F:61:1A:22:B0'
p23
aS'00:0F:61:1A:22:B2'
p24
aS'00:0F:61:1A:22:B3'
p25
aS'00:0F:61:1A:22:B1'
p26
aS'00:0F:61:19:2A:73'
p27
aS'00:0F:61:19:2A:72'
p28
aS'00:0F:61:19:2A:70'
p29
aS'00:0F:61:19:2A:71'
p30
aS'00:0F:61:F4:EC:68'
p31
aS'00:0F:61:1A:15:71'
p32
aS'00:0F:61:1A:15:70'
p33
aS'00:24:93:69:39:40'
p34
asg18
S'j44'
p35
sa(dp36
g2
(lp37
F-49.0
aF-49.0
aF-49.4
aF-49.4
aF-68.0
aF-68.66666666666667
aF-68.66666666666667
aF-69.0
aF-73.4
aF-73.6
aF-73.8
aF-74.0
asg4
(lp38
S'00:03:52:5D:18:61'
p39
aS'00:03:52:5D:18:60'
p40
aS'00:03:52:5D:18:63'
p41
aS'00:03:52:5D:18:62'
p42
aS'00:03:52:5D:19:51'
p43
aS'00:03:52:5D:19:50'
p44
aS'00:03:52:5D:19:53'
p45
aS'00:03:52:5D:19:52'
p46
aS'00:03:52:5D:2C:C3'
p47
aS'00:03:52:5D:2C:C0'
p48
aS'00:03:52:5D:2C:C1'
p49
aS'00:03:52:5D:2C:C2'
p50
asg18
S'mlk_kitchen'
p51
sa(dp52
g2
(lp53
F-35.8
aF-43.0
aF-48.2
aF-48.6
aF-48.6
aF-48.8
aF-70.0
aF-71.0
aF-71.25
aF-73.0
aF-73.0
aF-73.0
asg4
(lp54
S'00:1C:10:8F:06:F4'
p55
aS'1C:BD:B9:89:D6:44'
p56
aS'00:03:52:5D:26:F1'
p57
aS'00:03:52:5D:26:F3'
p58
aS'00:03:52:5D:26:F0'
p59
aS'00:03:52:5D:26:F2'
p60
aS'00:03:52:5D:18:63'
p61
aS'00:03:52:1C:31:F0'
p62
aS'00:03:52:5D:18:60'
p63
aS'00:03:52:5D:18:61'
p64
aS'00:03:52:1C:31:F1'
p65
aS'00:03:52:1C:31:F3'
p66
asg18
S'cube_room'
p67
sa(dp68
g2
(lp69
F-54.6
aF-54.6
aF-54.8
aF-55.0
aF-57.0
aF-60.6
aF-60.8
aF-61.0
aF-61.2
aF-74.33333333333333
aF-74.5
aF-74.75
asg4
(lp70
S'00:03:52:5D:2C:C3'
p71
aS'00:03:52:5D:2C:C0'
p72
aS'00:03:52:5D:2C:C2'
p73
aS'00:03:52:5D:2C:C1'
p74
aS'34:08:04:24:E1:E6'
p75
aS'00:03:52:5D:18:60'
p76
aS'00:03:52:5D:18:61'
p77
aS'00:03:52:5D:18:63'
p78
aS'00:03:52:5D:18:62'
p79
aS'00:03:52:5D:19:53'
p80
aS'00:03:52:5D:19:50'
p81
aS'00:03:52:5D:19:51'
p82
asg18
S'mlk35'
p83
sa.