(lp0
(dp1
S'strenghtList'
p2
(lp3
F-49.0
aF-49.0
aF-49.4
aF-49.4
aF-68.0
aF-68.66666666666667
aF-68.66666666666667
aF-69.0
aF-73.4
aF-73.6
aF-73.8
aF-74.0
asS'featureList'
p4
(lp5
S'00:03:52:5D:18:61'
p6
aS'00:03:52:5D:18:60'
p7
aS'00:03:52:5D:18:63'
p8
aS'00:03:52:5D:18:62'
p9
aS'00:03:52:5D:19:51'
p10
aS'00:03:52:5D:19:50'
p11
aS'00:03:52:5D:19:53'
p12
aS'00:03:52:5D:19:52'
p13
aS'00:03:52:5D:2C:C3'
p14
aS'00:03:52:5D:2C:C0'
p15
aS'00:03:52:5D:2C:C1'
p16
aS'00:03:52:5D:2C:C2'
p17
asS'label'
p18
S'mlk_kitchen'
p19
sa(dp20
g2
(lp21
F-35.8
aF-43.0
aF-48.2
aF-48.6
aF-48.6
aF-48.8
aF-70.0
aF-71.0
aF-71.25
aF-73.0
aF-73.0
aF-73.0
asg4
(lp22
S'00:1C:10:8F:06:F4'
p23
aS'1C:BD:B9:89:D6:44'
p24
aS'00:03:52:5D:26:F1'
p25
aS'00:03:52:5D:26:F3'
p26
aS'00:03:52:5D:26:F0'
p27
aS'00:03:52:5D:26:F2'
p28
aS'00:03:52:5D:18:63'
p29
aS'00:03:52:1C:31:F0'
p30
aS'00:03:52:5D:18:60'
p31
aS'00:03:52:5D:18:61'
p32
aS'00:03:52:1C:31:F1'
p33
aS'00:03:52:1C:31:F3'
p34
asg18
S'cube_room'
p35
sa(dp36
g2
(lp37
F-54.6
aF-54.6
aF-54.8
aF-55.0
aF-57.0
aF-60.6
aF-60.8
aF-61.0
aF-61.2
aF-74.33333333333333
aF-74.5
aF-74.75
asg4
(lp38
S'00:03:52:5D:2C:C3'
p39
aS'00:03:52:5D:2C:C0'
p40
aS'00:03:52:5D:2C:C2'
p41
aS'00:03:52:5D:2C:C1'
p42
aS'34:08:04:24:E1:E6'
p43
aS'00:03:52:5D:18:60'
p44
aS'00:03:52:5D:18:61'
p45
aS'00:03:52:5D:18:63'
p46
aS'00:03:52:5D:18:62'
p47
aS'00:03:52:5D:19:53'
p48
aS'00:03:52:5D:19:50'
p49
aS'00:03:52:5D:19:51'
p50
asg18
S'mlk35'
p51
sa.