(lp0
(dp1
S'measurements'
p2
(lp3
(i__main__
singleMsr
p4
(dp5
S'signalStrength'
p6
I-60
sS'ESSID'
p7
S'eth'
p8
sS'address'
p9
S'00:03:52:5D:2C:C0'
p10
sba(i__main__
singleMsr
p11
(dp12
g6
I-60
sg7
S'public'
p13
sg9
S'00:03:52:5D:2C:C1'
p14
sba(i__main__
singleMsr
p15
(dp16
g6
I-60
sg7
S'MOBILE-EAPSIM'
p17
sg9
S'00:03:52:5D:2C:C2'
p18
sba(i__main__
singleMsr
p19
(dp20
g6
I-60
sg7
S'eduroam'
p21
sg9
S'00:03:52:5D:2C:C3'
p22
sba(i__main__
singleMsr
p23
(dp24
g6
I-67
sg7
S'eth'
p25
sg9
S'00:03:52:5D:18:60'
p26
sba(i__main__
singleMsr
p27
(dp28
g6
I-67
sg7
S'public'
p29
sg9
S'00:03:52:5D:18:61'
p30
sba(i__main__
singleMsr
p31
(dp32
g6
I-67
sg7
S'MOBILE-EAPSIM'
p33
sg9
S'00:03:52:5D:18:62'
p34
sba(i__main__
singleMsr
p35
(dp36
g6
I-68
sg7
S'eduroam'
p37
sg9
S'00:03:52:5D:18:63'
p38
sba(i__main__
singleMsr
p39
(dp40
g6
I-74
sg7
S'eth'
p41
sg9
S'00:03:52:5D:19:50'
p42
sba(i__main__
singleMsr
p43
(dp44
g6
I-74
sg7
S'public'
p45
sg9
S'00:03:52:5D:19:51'
p46
sba(i__main__
singleMsr
p47
(dp48
g6
I-74
sg7
S'MOBILE-EAPSIM'
p49
sg9
S'00:03:52:5D:19:52'
p50
sba(i__main__
singleMsr
p51
(dp52
g6
I-74
sg7
S'eduroam'
p53
sg9
S'00:03:52:5D:19:53'
p54
sba(i__main__
singleMsr
p55
(dp56
g6
I-59
sg7
S'fma-d'
p57
sg9
S'34:08:04:24:E1:E6'
p58
sbasS'id'
p59
I0
sS'label'
p60
S'mlk35'
p61
sa(dp62
S'measurements'
p63
(lp64
(i__main__
singleMsr
p65
(dp66
g6
I-49
sg7
S'eth'
p67
sg9
S'00:03:52:5D:2C:C0'
p68
sba(i__main__
singleMsr
p69
(dp70
g6
I-50
sg7
S'public'
p71
sg9
S'00:03:52:5D:2C:C1'
p72
sba(i__main__
singleMsr
p73
(dp74
g6
I-50
sg7
S'MOBILE-EAPSIM'
p75
sg9
S'00:03:52:5D:2C:C2'
p76
sba(i__main__
singleMsr
p77
(dp78
g6
I-50
sg7
S'eduroam'
p79
sg9
S'00:03:52:5D:2C:C3'
p80
sba(i__main__
singleMsr
p81
(dp82
g6
I-56
sg7
S'eth'
p83
sg9
S'00:03:52:5D:18:60'
p84
sba(i__main__
singleMsr
p85
(dp86
g6
I-56
sg7
S'public'
p87
sg9
S'00:03:52:5D:18:61'
p88
sba(i__main__
singleMsr
p89
(dp90
g6
I-57
sg7
S'MOBILE-EAPSIM'
p91
sg9
S'00:03:52:5D:18:62'
p92
sba(i__main__
singleMsr
p93
(dp94
g6
I-57
sg7
S'eduroam'
p95
sg9
S'00:03:52:5D:18:63'
p96
sba(i__main__
singleMsr
p97
(dp98
g6
I-84
sg7
S'eth'
p99
sg9
S'00:03:52:5D:3E:10'
p100
sba(i__main__
singleMsr
p101
(dp102
g6
I-85
sg7
S'public'
p103
sg9
S'00:03:52:5D:3E:11'
p104
sba(i__main__
singleMsr
p105
(dp106
g6
I-58
sg7
S'fma-d'
p107
sg9
S'34:08:04:24:E1:E6'
p108
sba(i__main__
singleMsr
p109
(dp110
g6
I-73
sg7
S'eth'
p111
sg9
S'00:03:52:5D:19:50'
p112
sba(i__main__
singleMsr
p113
(dp114
g6
I-74
sg7
S'public'
p115
sg9
S'00:03:52:5D:19:51'
p116
sba(i__main__
singleMsr
p117
(dp118
g6
I-74
sg7
S'MOBILE-EAPSIM'
p119
sg9
S'00:03:52:5D:19:52'
p120
sba(i__main__
singleMsr
p121
(dp122
g6
I-73
sg7
S'eduroam'
p123
sg9
S'00:03:52:5D:19:53'
p124
sba(i__main__
singleMsr
p125
(dp126
g6
I-75
sg7
S'eduroam'
p127
sg9
S'00:03:52:5D:26:F3'
p128
sbasS'id'
p129
I1
sS'label'
p130
S'mlk35'
p131
sa(dp132
S'measurements'
p133
(lp134
(i__main__
singleMsr
p135
(dp136
g6
I-54
sg7
S'eth'
p137
sg9
S'00:03:52:5D:2C:C0'
p138
sba(i__main__
singleMsr
p139
(dp140
g6
I-54
sg7
S'public'
p141
sg9
S'00:03:52:5D:2C:C1'
p142
sba(i__main__
singleMsr
p143
(dp144
g6
I-54
sg7
S'MOBILE-EAPSIM'
p145
sg9
S'00:03:52:5D:2C:C2'
p146
sba(i__main__
singleMsr
p147
(dp148
g6
I-54
sg7
S'eduroam'
p149
sg9
S'00:03:52:5D:2C:C3'
p150
sba(i__main__
singleMsr
p151
(dp152
g6
I-83
sg7
S'ayim'
p153
sg9
S'00:1C:10:8F:06:F4'
p154
sba(i__main__
singleMsr
p155
(dp156
g6
I-50
sg7
S'eth'
p157
sg9
S'00:03:52:5D:18:60'
p158
sba(i__main__
singleMsr
p159
(dp160
g6
I-50
sg7
S'public'
p161
sg9
S'00:03:52:5D:18:61'
p162
sba(i__main__
singleMsr
p163
(dp164
g6
I-50
sg7
S'MOBILE-EAPSIM'
p165
sg9
S'00:03:52:5D:18:62'
p166
sba(i__main__
singleMsr
p167
(dp168
g6
I-50
sg7
S'eduroam'
p169
sg9
S'00:03:52:5D:18:63'
p170
sba(i__main__
singleMsr
p171
(dp172
g6
I-76
sg7
S'eduroam'
p173
sg9
S'00:03:52:5D:26:F3'
p174
sba(i__main__
singleMsr
p175
(dp176
g6
I-73
sg7
S'eth'
p177
sg9
S'00:03:52:5D:26:F0'
p178
sba(i__main__
singleMsr
p179
(dp180
g6
I-74
sg7
S'public'
p181
sg9
S'00:03:52:5D:26:F1'
p182
sba(i__main__
singleMsr
p183
(dp184
g6
I-75
sg7
S'MOBILE-EAPSIM'
p185
sg9
S'00:03:52:5D:26:F2'
p186
sba(i__main__
singleMsr
p187
(dp188
g6
I-55
sg7
S'fma-d'
p189
sg9
S'34:08:04:24:E1:E6'
p190
sbasS'id'
p191
I2
sS'label'
p192
S'mlk35'
p193
sa(dp194
S'measurements'
p195
(lp196
(i__main__
singleMsr
p197
(dp198
g6
I-66
sg7
S'public'
p199
sg9
S'00:03:52:5D:18:61'
p200
sba(i__main__
singleMsr
p201
(dp202
g6
I-66
sg7
S'MOBILE-EAPSIM'
p203
sg9
S'00:03:52:5D:18:62'
p204
sba(i__main__
singleMsr
p205
(dp206
g6
I-64
sg7
S'eduroam'
p207
sg9
S'00:03:52:5D:18:63'
p208
sba(i__main__
singleMsr
p209
(dp210
g6
I-64
sg7
S'eth'
p211
sg9
S'00:03:52:5D:18:60'
p212
sba(i__main__
singleMsr
p213
(dp214
g6
I-74
sg7
S'eth'
p215
sg9
S'00:03:52:5D:19:50'
p216
sba(i__main__
singleMsr
p217
(dp218
g6
I-74
sg7
S'public'
p219
sg9
S'00:03:52:5D:19:51'
p220
sba(i__main__
singleMsr
p221
(dp222
g6
I-76
sg7
S'MOBILE-EAPSIM'
p223
sg9
S'00:03:52:5D:19:52'
p224
sba(i__main__
singleMsr
p225
(dp226
g6
I-76
sg7
S'eduroam'
p227
sg9
S'00:03:52:5D:19:53'
p228
sba(i__main__
singleMsr
p229
(dp230
g6
I-78
sg7
S'eth'
p231
sg9
S'00:03:52:5D:26:F0'
p232
sba(i__main__
singleMsr
p233
(dp234
g6
I-77
sg7
S'public'
p235
sg9
S'00:03:52:5D:26:F1'
p236
sba(i__main__
singleMsr
p237
(dp238
g6
I-78
sg7
S'MOBILE-EAPSIM'
p239
sg9
S'00:03:52:5D:26:F2'
p240
sba(i__main__
singleMsr
p241
(dp242
g6
I-77
sg7
S'eduroam'
p243
sg9
S'00:03:52:5D:26:F3'
p244
sba(i__main__
singleMsr
p245
(dp246
g6
I-56
sg7
S'fma-d'
p247
sg9
S'34:08:04:24:E1:E6'
p248
sba(i__main__
singleMsr
p249
(dp250
g6
I-53
sg7
S'eth'
p251
sg9
S'00:03:52:5D:2C:C0'
p252
sba(i__main__
singleMsr
p253
(dp254
g6
I-54
sg7
S'public'
p255
sg9
S'00:03:52:5D:2C:C1'
p256
sba(i__main__
singleMsr
p257
(dp258
g6
I-53
sg7
S'MOBILE-EAPSIM'
p259
sg9
S'00:03:52:5D:2C:C2'
p260
sba(i__main__
singleMsr
p261
(dp262
g6
I-53
sg7
S'eduroam'
p263
sg9
S'00:03:52:5D:2C:C3'
p264
sbasS'id'
p265
I3
sS'label'
p266
S'mlk35'
p267
sa(dp268
S'measurements'
p269
(lp270
(i__main__
singleMsr
p271
(dp272
g6
I-57
sg7
S'eth'
p273
sg9
S'00:03:52:5D:2C:C0'
p274
sba(i__main__
singleMsr
p275
(dp276
g6
I-57
sg7
S'public'
p277
sg9
S'00:03:52:5D:2C:C1'
p278
sba(i__main__
singleMsr
p279
(dp280
g6
I-57
sg7
S'MOBILE-EAPSIM'
p281
sg9
S'00:03:52:5D:2C:C2'
p282
sba(i__main__
singleMsr
p283
(dp284
g6
I-88
sg7
S'eth'
p285
sg9
S'00:03:52:1C:31:F0'
p286
sba(i__main__
singleMsr
p287
(dp288
g6
I-87
sg7
S'MOBILE-EAPSIM'
p289
sg9
S'00:03:52:1C:31:F2'
p290
sba(i__main__
singleMsr
p291
(dp292
g6
I-87
sg7
S'eduroam'
p293
sg9
S'00:03:52:1C:31:F3'
p294
sba(i__main__
singleMsr
p295
(dp296
g6
I-56
sg7
S'eduroam'
p297
sg9
S'00:03:52:5D:2C:C3'
p298
sba(i__main__
singleMsr
p299
(dp300
g6
I-66
sg7
S'eth'
p301
sg9
S'00:03:52:5D:18:60'
p302
sba(i__main__
singleMsr
p303
(dp304
g6
I-65
sg7
S'public'
p305
sg9
S'00:03:52:5D:18:61'
p306
sba(i__main__
singleMsr
p307
(dp308
g6
I-66
sg7
S'MOBILE-EAPSIM'
p309
sg9
S'00:03:52:5D:18:62'
p310
sba(i__main__
singleMsr
p311
(dp312
g6
I-66
sg7
S'eduroam'
p313
sg9
S'00:03:52:5D:18:63'
p314
sba(i__main__
singleMsr
p315
(dp316
g6
I-76
sg7
S'public'
p317
sg9
S'00:03:52:5D:26:F1'
p318
sba(i__main__
singleMsr
p319
(dp320
g6
I-76
sg7
S'MOBILE-EAPSIM'
p321
sg9
S'00:03:52:5D:26:F2'
p322
sba(i__main__
singleMsr
p323
(dp324
g6
I-89
sg7
S'eduroam'
p325
sg9
S'00:03:52:5D:26:F3'
p326
sba(i__main__
singleMsr
p327
(dp328
g6
I-77
sg7
S'eth'
p329
sg9
S'00:03:52:5D:19:50'
p330
sba(i__main__
singleMsr
p331
(dp332
g6
I-77
sg7
S'public'
p333
sg9
S'00:03:52:5D:19:51'
p334
sba(i__main__
singleMsr
p335
(dp336
g6
I-77
sg7
S'MOBILE-EAPSIM'
p337
sg9
S'00:03:52:5D:19:52'
p338
sbasS'id'
p339
I4
sS'label'
p340
S'mlk35'
p341
sa(dp342
S'measurements'
p343
(lp344
(i__main__
singleMsr
p345
(dp346
g6
I-43
sg7
S'eth'
p347
sg9
S'00:03:52:5D:18:60'
p348
sba(i__main__
singleMsr
p349
(dp350
g6
I-44
sg7
S'public'
p351
sg9
S'00:03:52:5D:18:61'
p352
sba(i__main__
singleMsr
p353
(dp354
g6
I-44
sg7
S'MOBILE-EAPSIM'
p355
sg9
S'00:03:52:5D:18:62'
p356
sba(i__main__
singleMsr
p357
(dp358
g6
I-44
sg7
S'eduroam'
p359
sg9
S'00:03:52:5D:18:63'
p360
sba(i__main__
singleMsr
p361
(dp362
g6
I-66
sg7
S'eth'
p363
sg9
S'00:03:52:5D:19:50'
p364
sba(i__main__
singleMsr
p365
(dp366
g6
I-66
sg7
S'public'
p367
sg9
S'00:03:52:5D:19:51'
p368
sba(i__main__
singleMsr
p369
(dp370
g6
I-67
sg7
S'MOBILE-EAPSIM'
p371
sg9
S'00:03:52:5D:19:52'
p372
sba(i__main__
singleMsr
p373
(dp374
g6
I-67
sg7
S'eduroam'
p375
sg9
S'00:03:52:5D:19:53'
p376
sba(i__main__
singleMsr
p377
(dp378
g6
I-72
sg7
S'fma-d'
p379
sg9
S'34:08:04:24:E1:E6'
p380
sba(i__main__
singleMsr
p381
(dp382
g6
I-74
sg7
S'eth'
p383
sg9
S'00:03:52:5D:2C:C0'
p384
sba(i__main__
singleMsr
p385
(dp386
g6
I-75
sg7
S'public'
p387
sg9
S'00:03:52:5D:2C:C1'
p388
sba(i__main__
singleMsr
p389
(dp390
g6
I-74
sg7
S'MOBILE-EAPSIM'
p391
sg9
S'00:03:52:5D:2C:C2'
p392
sba(i__main__
singleMsr
p393
(dp394
g6
I-74
sg7
S'eduroam'
p395
sg9
S'00:03:52:5D:2C:C3'
p396
sba(i__main__
singleMsr
p397
(dp398
g6
I-84
sg7
S'ayim'
p399
sg9
S'1C:BD:B9:89:D6:44'
p400
sbasS'id'
p401
I5
sS'label'
p402
S'mlk_kitchen'
p403
sa(dp404
S'measurements'
p405
(lp406
(i__main__
singleMsr
p407
(dp408
g6
I-44
sg7
S'eth'
p409
sg9
S'00:03:52:5D:18:60'
p410
sba(i__main__
singleMsr
p411
(dp412
g6
I-43
sg7
S'public'
p413
sg9
S'00:03:52:5D:18:61'
p414
sba(i__main__
singleMsr
p415
(dp416
g6
I-44
sg7
S'MOBILE-EAPSIM'
p417
sg9
S'00:03:52:5D:18:62'
p418
sba(i__main__
singleMsr
p419
(dp420
g6
I-44
sg7
S'eduroam'
p421
sg9
S'00:03:52:5D:18:63'
p422
sba(i__main__
singleMsr
p423
(dp424
g6
I-64
sg7
S'MOBILE-EAPSIM'
p425
sg9
S'00:03:52:5D:19:52'
p426
sba(i__main__
singleMsr
p427
(dp428
g6
I-63
sg7
S'eth'
p429
sg9
S'00:03:52:5D:19:50'
p430
sba(i__main__
singleMsr
p431
(dp432
g6
I-63
sg7
S'public'
p433
sg9
S'00:03:52:5D:19:51'
p434
sba(i__main__
singleMsr
p435
(dp436
g6
I-63
sg7
S'eduroam'
p437
sg9
S'00:03:52:5D:19:53'
p438
sba(i__main__
singleMsr
p439
(dp440
g6
I-72
sg7
S'fma-d'
p441
sg9
S'34:08:04:24:E1:E6'
p442
sba(i__main__
singleMsr
p443
(dp444
g6
I-72
sg7
S'eth'
p445
sg9
S'00:03:52:5D:2C:C0'
p446
sba(i__main__
singleMsr
p447
(dp448
g6
I-72
sg7
S'public'
p449
sg9
S'00:03:52:5D:2C:C1'
p450
sba(i__main__
singleMsr
p451
(dp452
g6
I-72
sg7
S'MOBILE-EAPSIM'
p453
sg9
S'00:03:52:5D:2C:C2'
p454
sba(i__main__
singleMsr
p455
(dp456
g6
I-72
sg7
S'eduroam'
p457
sg9
S'00:03:52:5D:2C:C3'
p458
sba(i__main__
singleMsr
p459
(dp460
g6
I-72
sg7
S'public-5'
p461
sg9
S'00:03:52:B1:F5:C7'
p462
sba(i__main__
singleMsr
p463
(dp464
g6
I-72
sg7
S'eth-5'
p465
sg9
S'00:03:52:B1:F5:C8'
p466
sbasS'id'
p467
I6
sS'label'
p468
S'mlk_kitchen'
p469
sa(dp470
S'measurements'
p471
(lp472
(i__main__
singleMsr
p473
(dp474
g6
I-55
sg7
S'eth'
p475
sg9
S'00:03:52:5D:18:60'
p476
sba(i__main__
singleMsr
p477
(dp478
g6
I-55
sg7
S'public'
p479
sg9
S'00:03:52:5D:18:61'
p480
sba(i__main__
singleMsr
p481
(dp482
g6
I-55
sg7
S'MOBILE-EAPSIM'
p483
sg9
S'00:03:52:5D:18:62'
p484
sba(i__main__
singleMsr
p485
(dp486
g6
I-55
sg7
S'eduroam'
p487
sg9
S'00:03:52:5D:18:63'
p488
sba(i__main__
singleMsr
p489
(dp490
g6
I-80
sg7
S'eth'
p491
sg9
S'00:03:52:5D:2A:90'
p492
sba(i__main__
singleMsr
p493
(dp494
g6
I-79
sg7
S'public'
p495
sg9
S'00:03:52:5D:2A:91'
p496
sba(i__main__
singleMsr
p497
(dp498
g6
I-80
sg7
S'MOBILE-EAPSIM'
p499
sg9
S'00:03:52:5D:2A:92'
p500
sba(i__main__
singleMsr
p501
(dp502
g6
I-81
sg7
S'eduroam'
p503
sg9
S'00:03:52:5D:2A:93'
p504
sba(i__main__
singleMsr
p505
(dp506
g6
I-80
sg7
S'fma-d'
p507
sg9
S'34:08:04:24:E1:E6'
p508
sba(i__main__
singleMsr
p509
(dp510
g6
I-73
sg7
S'eth'
p511
sg9
S'00:03:52:5D:2C:C0'
p512
sba(i__main__
singleMsr
p513
(dp514
g6
I-74
sg7
S'public'
p515
sg9
S'00:03:52:5D:2C:C1'
p516
sba(i__main__
singleMsr
p517
(dp518
g6
I-74
sg7
S'MOBILE-EAPSIM'
p519
sg9
S'00:03:52:5D:2C:C2'
p520
sba(i__main__
singleMsr
p521
(dp522
g6
I-73
sg7
S'eduroam'
p523
sg9
S'00:03:52:5D:2C:C3'
p524
sbasS'id'
p525
I7
sS'label'
p526
S'mlk_kitchen'
p527
sa(dp528
S'measurements'
p529
(lp530
(i__main__
singleMsr
p531
(dp532
g6
I-52
sg7
S'eth'
p533
sg9
S'00:03:52:5D:18:60'
p534
sba(i__main__
singleMsr
p535
(dp536
g6
I-52
sg7
S'public'
p537
sg9
S'00:03:52:5D:18:61'
p538
sba(i__main__
singleMsr
p539
(dp540
g6
I-52
sg7
S'MOBILE-EAPSIM'
p541
sg9
S'00:03:52:5D:18:62'
p542
sba(i__main__
singleMsr
p543
(dp544
g6
I-52
sg7
S'eduroam'
p545
sg9
S'00:03:52:5D:18:63'
p546
sba(i__main__
singleMsr
p547
(dp548
g6
I-77
sg7
S'eth'
p549
sg9
S'00:03:52:5D:19:50'
p550
sba(i__main__
singleMsr
p551
(dp552
g6
I-75
sg7
S'public'
p553
sg9
S'00:03:52:5D:19:51'
p554
sba(i__main__
singleMsr
p555
(dp556
g6
I-76
sg7
S'MOBILE-EAPSIM'
p557
sg9
S'00:03:52:5D:19:52'
p558
sba(i__main__
singleMsr
p559
(dp560
g6
I-76
sg7
S'eduroam'
p561
sg9
S'00:03:52:5D:19:53'
p562
sba(i__main__
singleMsr
p563
(dp564
g6
I-81
sg7
S'public'
p565
sg9
S'00:03:52:5D:26:F1'
p566
sba(i__main__
singleMsr
p567
(dp568
g6
I-82
sg7
S'MOBILE-EAPSIM'
p569
sg9
S'00:03:52:5D:26:F2'
p570
sba(i__main__
singleMsr
p571
(dp572
g6
I-84
sg7
S'fma-d'
p573
sg9
S'34:08:04:24:E1:E6'
p574
sba(i__main__
singleMsr
p575
(dp576
g6
I-76
sg7
S'eth'
p577
sg9
S'00:03:52:5D:2C:C0'
p578
sba(i__main__
singleMsr
p579
(dp580
g6
I-74
sg7
S'public'
p581
sg9
S'00:03:52:5D:2C:C1'
p582
sba(i__main__
singleMsr
p583
(dp584
g6
I-76
sg7
S'MOBILE-EAPSIM'
p585
sg9
S'00:03:52:5D:2C:C2'
p586
sba(i__main__
singleMsr
p587
(dp588
g6
I-75
sg7
S'eduroam'
p589
sg9
S'00:03:52:5D:2C:C3'
p590
sba(i__main__
singleMsr
p591
(dp592
g6
I-85
sg7
S'public-5'
p593
sg9
S'00:03:52:B1:F5:C7'
p594
sba(i__main__
singleMsr
p595
(dp596
g6
I-86
sg7
S'eth-5'
p597
sg9
S'00:03:52:B1:F5:C8'
p598
sbasS'id'
p599
I8
sS'label'
p600
S'mlk_kitchen'
p601
sa(dp602
S'measurements'
p603
(lp604
(i__main__
singleMsr
p605
(dp606
g6
I-82
sg7
S'eth'
p607
sg9
S'00:03:52:5D:26:F0'
p608
sba(i__main__
singleMsr
p609
(dp610
g6
I-81
sg7
S'public'
p611
sg9
S'00:03:52:5D:26:F1'
p612
sba(i__main__
singleMsr
p613
(dp614
g6
I-78
sg7
S'public'
p615
sg9
S'00:03:52:5D:2A:91'
p616
sba(i__main__
singleMsr
p617
(dp618
g6
I-78
sg7
S'MOBILE-EAPSIM'
p619
sg9
S'00:03:52:5D:2A:92'
p620
sba(i__main__
singleMsr
p621
(dp622
g6
I-52
sg7
S'eduroam'
p623
sg9
S'00:03:52:5D:18:63'
p624
sba(i__main__
singleMsr
p625
(dp626
g6
I-73
sg7
S'eth'
p627
sg9
S'00:03:52:5D:2C:C0'
p628
sba(i__main__
singleMsr
p629
(dp630
g6
I-74
sg7
S'public'
p631
sg9
S'00:03:52:5D:2C:C1'
p632
sba(i__main__
singleMsr
p633
(dp634
g6
I-74
sg7
S'MOBILE-EAPSIM'
p635
sg9
S'00:03:52:5D:2C:C2'
p636
sba(i__main__
singleMsr
p637
(dp638
g6
I-73
sg7
S'eduroam'
p639
sg9
S'00:03:52:5D:2C:C3'
p640
sba(i__main__
singleMsr
p641
(dp642
g6
I-52
sg7
S'MOBILE-EAPSIM'
p643
sg9
S'00:03:52:5D:18:62'
p644
sba(i__main__
singleMsr
p645
(dp646
g6
I-51
sg7
S'eth'
p647
sg9
S'00:03:52:5D:18:60'
p648
sba(i__main__
singleMsr
p649
(dp650
g6
I-51
sg7
S'public'
p651
sg9
S'00:03:52:5D:18:61'
p652
sbasS'id'
p653
I9
sS'label'
p654
S'mlk_kitchen'
p655
sa(dp656
S'measurements'
p657
(lp658
(i__main__
singleMsr
p659
(dp660
g6
I-49
sg7
S'eth'
p661
sg9
S'00:03:52:5D:26:F0'
p662
sba(i__main__
singleMsr
p663
(dp664
g6
I-49
sg7
S'public'
p665
sg9
S'00:03:52:5D:26:F1'
p666
sba(i__main__
singleMsr
p667
(dp668
g6
I-49
sg7
S'MOBILE-EAPSIM'
p669
sg9
S'00:03:52:5D:26:F2'
p670
sba(i__main__
singleMsr
p671
(dp672
g6
I-49
sg7
S'eduroam'
p673
sg9
S'00:03:52:5D:26:F3'
p674
sba(i__main__
singleMsr
p675
(dp676
g6
I-68
sg7
S'eth'
p677
sg9
S'00:03:52:5D:2D:70'
p678
sba(i__main__
singleMsr
p679
(dp680
g6
I-69
sg7
S'public'
p681
sg9
S'00:03:52:5D:2D:71'
p682
sba(i__main__
singleMsr
p683
(dp684
g6
I-68
sg7
S'MOBILE-EAPSIM'
p685
sg9
S'00:03:52:5D:2D:72'
p686
sba(i__main__
singleMsr
p687
(dp688
g6
I-68
sg7
S'eduroam'
p689
sg9
S'00:03:52:5D:2D:73'
p690
sba(i__main__
singleMsr
p691
(dp692
g6
I-81
sg7
S'eth'
p693
sg9
S'00:03:52:5D:2C:C0'
p694
sba(i__main__
singleMsr
p695
(dp696
g6
I-80
sg7
S'public'
p697
sg9
S'00:03:52:5D:2C:C1'
p698
sba(i__main__
singleMsr
p699
(dp700
g6
I-80
sg7
S'MOBILE-EAPSIM'
p701
sg9
S'00:03:52:5D:2C:C2'
p702
sba(i__main__
singleMsr
p703
(dp704
g6
I-82
sg7
S'eduroam'
p705
sg9
S'00:03:52:5D:2C:C3'
p706
sba(i__main__
singleMsr
p707
(dp708
g6
I-45
sg7
S'ayim'
p709
sg9
S'1C:BD:B9:89:D6:44'
p710
sba(i__main__
singleMsr
p711
(dp712
g6
I-41
sg7
S'ayim'
p713
sg9
S'00:1C:10:8F:06:F4'
p714
sba(i__main__
singleMsr
p715
(dp716
g6
I-70
sg7
S'eth'
p717
sg9
S'00:03:52:5D:18:60'
p718
sba(i__main__
singleMsr
p719
(dp720
g6
I-70
sg7
S'public'
p721
sg9
S'00:03:52:5D:18:61'
p722
sba(i__main__
singleMsr
p723
(dp724
g6
I-70
sg7
S'MOBILE-EAPSIM'
p725
sg9
S'00:03:52:5D:18:62'
p726
sba(i__main__
singleMsr
p727
(dp728
g6
I-70
sg7
S'eduroam'
p729
sg9
S'00:03:52:5D:18:63'
p730
sbasS'id'
p731
I10
sS'label'
p732
S'cube_room'
p733
sa(dp734
S'measurements'
p735
(lp736
(i__main__
singleMsr
p737
(dp738
g6
I-76
sg7
S'eduroam'
p739
sg9
S'00:03:52:5D:2D:73'
p740
sba(i__main__
singleMsr
p741
(dp742
g6
I-52
sg7
S'eth'
p743
sg9
S'00:03:52:5D:26:F0'
p744
sba(i__main__
singleMsr
p745
(dp746
g6
I-51
sg7
S'public'
p747
sg9
S'00:03:52:5D:26:F1'
p748
sba(i__main__
singleMsr
p749
(dp750
g6
I-52
sg7
S'MOBILE-EAPSIM'
p751
sg9
S'00:03:52:5D:26:F2'
p752
sba(i__main__
singleMsr
p753
(dp754
g6
I-52
sg7
S'eduroam'
p755
sg9
S'00:03:52:5D:26:F3'
p756
sba(i__main__
singleMsr
p757
(dp758
g6
I-86
sg7
S'public'
p759
sg9
S'00:03:52:5D:2A:91'
p760
sba(i__main__
singleMsr
p761
(dp762
g6
I-83
sg7
S'fma-d'
p763
sg9
S'34:08:04:24:E1:E6'
p764
sba(i__main__
singleMsr
p765
(dp766
g6
I-77
sg7
S'public'
p767
sg9
S'00:03:52:5D:2D:71'
p768
sba(i__main__
singleMsr
p769
(dp770
g6
I-77
sg7
S'eth'
p771
sg9
S'00:03:52:5D:2C:C0'
p772
sba(i__main__
singleMsr
p773
(dp774
g6
I-76
sg7
S'public'
p775
sg9
S'00:03:52:5D:2C:C1'
p776
sba(i__main__
singleMsr
p777
(dp778
g6
I-76
sg7
S'MOBILE-EAPSIM'
p779
sg9
S'00:03:52:5D:2C:C2'
p780
sba(i__main__
singleMsr
p781
(dp782
g6
I-33
sg7
S'ayim'
p783
sg9
S'00:1C:10:8F:06:F4'
p784
sba(i__main__
singleMsr
p785
(dp786
g6
I-47
sg7
S'ayim'
p787
sg9
S'1C:BD:B9:89:D6:44'
p788
sba(i__main__
singleMsr
p789
(dp790
g6
I-79
sg7
S'eth'
p791
sg9
S'00:0F:61:1A:21:70'
p792
sba(i__main__
singleMsr
p793
(dp794
g6
I-79
sg7
S'public'
p795
sg9
S'00:0F:61:1A:21:71'
p796
sba(i__main__
singleMsr
p797
(dp798
g6
I-79
sg7
S'MOBILE-EAPSIM'
p799
sg9
S'00:0F:61:1A:21:72'
p800
sba(i__main__
singleMsr
p801
(dp802
g6
I-64
sg7
S'eth'
p803
sg9
S'00:03:52:5D:18:60'
p804
sbasS'id'
p805
I11
sS'label'
p806
S'cube_room'
p807
sa(dp808
S'measurements'
p809
(lp810
(i__main__
singleMsr
p811
(dp812
g6
I-47
sg7
S'eth'
p813
sg9
S'00:03:52:5D:26:F0'
p814
sba(i__main__
singleMsr
p815
(dp816
g6
I-81
sg7
S'eth'
p817
sg9
S'00:03:52:5D:2D:70'
p818
sba(i__main__
singleMsr
p819
(dp820
g6
I-80
sg7
S'public'
p821
sg9
S'00:03:52:5D:2D:71'
p822
sba(i__main__
singleMsr
p823
(dp824
g6
I-80
sg7
S'MOBILE-EAPSIM'
p825
sg9
S'00:03:52:5D:2D:72'
p826
sba(i__main__
singleMsr
p827
(dp828
g6
I-47
sg7
S'public'
p829
sg9
S'00:03:52:5D:26:F1'
p830
sba(i__main__
singleMsr
p831
(dp832
g6
I-79
sg7
S'eduroam'
p833
sg9
S'00:03:52:5D:2D:73'
p834
sba(i__main__
singleMsr
p835
(dp836
g6
I-47
sg7
S'MOBILE-EAPSIM'
p837
sg9
S'00:03:52:5D:26:F2'
p838
sba(i__main__
singleMsr
p839
(dp840
g6
I-47
sg7
S'eduroam'
p841
sg9
S'00:03:52:5D:26:F3'
p842
sba(i__main__
singleMsr
p843
(dp844
g6
I-75
sg7
S'MOBILE-EAPSIM'
p845
sg9
S'00:03:52:5D:2C:C2'
p846
sba(i__main__
singleMsr
p847
(dp848
g6
I-72
sg7
S'eduroam'
p849
sg9
S'00:03:52:5D:2C:C3'
p850
sba(i__main__
singleMsr
p851
(dp852
g6
I-71
sg7
S'eth'
p853
sg9
S'00:03:52:1C:31:F0'
p854
sba(i__main__
singleMsr
p855
(dp856
g6
I-73
sg7
S'public'
p857
sg9
S'00:03:52:1C:31:F1'
p858
sba(i__main__
singleMsr
p859
(dp860
g6
I-73
sg7
S'MOBILE-EAPSIM'
p861
sg9
S'00:03:52:1C:31:F2'
p862
sba(i__main__
singleMsr
p863
(dp864
g6
I-73
sg7
S'eduroam'
p865
sg9
S'00:03:52:1C:31:F3'
p866
sba(i__main__
singleMsr
p867
(dp868
g6
I-75
sg7
S'eth'
p869
sg9
S'00:03:52:5D:2C:C0'
p870
sba(i__main__
singleMsr
p871
(dp872
g6
I-75
sg7
S'public'
p873
sg9
S'00:03:52:5D:2C:C1'
p874
sba(i__main__
singleMsr
p875
(dp876
g6
I-40
sg7
S'ayim'
p877
sg9
S'00:1C:10:8F:06:F4'
p878
sbasS'id'
p879
I12
sS'label'
p880
S'cube_room'
p881
sa(dp882
S'measurements'
p883
(lp884
(i__main__
singleMsr
p885
(dp886
g6
I-50
sg7
S'MOBILE-EAPSIM'
p887
sg9
S'00:03:52:5D:26:F2'
p888
sba(i__main__
singleMsr
p889
(dp890
g6
I-49
sg7
S'eduroam'
p891
sg9
S'00:03:52:5D:26:F3'
p892
sba(i__main__
singleMsr
p893
(dp894
g6
I-79
sg7
S'eth'
p895
sg9
S'00:03:52:5D:2C:C0'
p896
sba(i__main__
singleMsr
p897
(dp898
g6
I-77
sg7
S'public'
p899
sg9
S'00:03:52:5D:2C:C1'
p900
sba(i__main__
singleMsr
p901
(dp902
g6
I-78
sg7
S'MOBILE-EAPSIM'
p903
sg9
S'00:03:52:5D:2C:C2'
p904
sba(i__main__
singleMsr
p905
(dp906
g6
I-82
sg7
S'eth'
p907
sg9
S'00:03:52:1C:18:30'
p908
sba(i__main__
singleMsr
p909
(dp910
g6
I-78
sg7
S'eduroam'
p911
sg9
S'00:03:52:5D:2C:C3'
p912
sba(i__main__
singleMsr
p913
(dp914
g6
I-83
sg7
S'public'
p915
sg9
S'00:03:52:1C:18:31'
p916
sba(i__main__
singleMsr
p917
(dp918
g6
I-82
sg7
S'MOBILE-EAPSIM'
p919
sg9
S'00:03:52:1C:18:32'
p920
sba(i__main__
singleMsr
p921
(dp922
g6
I-49
sg7
S'eth'
p923
sg9
S'00:03:52:5D:26:F0'
p924
sba(i__main__
singleMsr
p925
(dp926
g6
I-49
sg7
S'public'
p927
sg9
S'00:03:52:5D:26:F1'
p928
sba(i__main__
singleMsr
p929
(dp930
g6
I-43
sg7
S'ayim'
p931
sg9
S'1C:BD:B9:89:D6:44'
p932
sba(i__main__
singleMsr
p933
(dp934
g6
I-34
sg7
S'ayim'
p935
sg9
S'00:1C:10:8F:06:F4'
p936
sba(i__main__
singleMsr
p937
(dp938
g6
I-78
sg7
S'eth'
p939
sg9
S'00:03:52:1C:17:80'
p940
sba(i__main__
singleMsr
p941
(dp942
g6
I-76
sg7
S'eth'
p943
sg9
S'00:03:52:5D:18:60'
p944
sba(i__main__
singleMsr
p945
(dp946
g6
I-81
sg7
S'eth'
p947
sg9
S'00:0F:61:1A:21:70'
p948
sba(i__main__
singleMsr
p949
(dp950
g6
I-80
sg7
S'public'
p951
sg9
S'00:0F:61:1A:21:71'
p952
sbasS'id'
p953
I13
sS'label'
p954
S'cube_room'
p955
sa(dp956
S'measurements'
p957
(lp958
(i__main__
singleMsr
p959
(dp960
g6
I-46
sg7
S'eth'
p961
sg9
S'00:03:52:5D:26:F0'
p962
sba(i__main__
singleMsr
p963
(dp964
g6
I-45
sg7
S'public'
p965
sg9
S'00:03:52:5D:26:F1'
p966
sba(i__main__
singleMsr
p967
(dp968
g6
I-46
sg7
S'MOBILE-EAPSIM'
p969
sg9
S'00:03:52:5D:26:F2'
p970
sba(i__main__
singleMsr
p971
(dp972
g6
I-46
sg7
S'eduroam'
p973
sg9
S'00:03:52:5D:26:F3'
p974
sba(i__main__
singleMsr
p975
(dp976
g6
I-74
sg7
S'eth'
p977
sg9
S'00:03:52:5D:2D:70'
p978
sba(i__main__
singleMsr
p979
(dp980
g6
I-74
sg7
S'public'
p981
sg9
S'00:03:52:5D:2D:71'
p982
sba(i__main__
singleMsr
p983
(dp984
g6
I-74
sg7
S'MOBILE-EAPSIM'
p985
sg9
S'00:03:52:5D:2D:72'
p986
sba(i__main__
singleMsr
p987
(dp988
g6
I-31
sg7
S'ayim'
p989
sg9
S'00:1C:10:8F:06:F4'
p990
sba(i__main__
singleMsr
p991
(dp992
g6
I-77
sg7
S'MOBILE-EAPSIM'
p993
sg9
S'00:03:52:5D:2C:C2'
p994
sba(i__main__
singleMsr
p995
(dp996
g6
I-77
sg7
S'eduroam'
p997
sg9
S'00:03:52:5D:2C:C3'
p998
sba(i__main__
singleMsr
p999
(dp1000
g6
I-78
sg7
S'eth'
p1001
sg9
S'00:03:52:29:8F:60'
p1002
sba(i__main__
singleMsr
p1003
(dp1004
g6
I-77
sg7
S'public'
p1005
sg9
S'00:03:52:29:8F:61'
p1006
sba(i__main__
singleMsr
p1007
(dp1008
g6
I-78
sg7
S'MOBILE-EAPSIM'
p1009
sg9
S'00:03:52:29:8F:62'
p1010
sba(i__main__
singleMsr
p1011
(dp1012
g6
I-78
sg7
S'eduroam'
p1013
sg9
S'00:03:52:29:8F:63'
p1014
sba(i__main__
singleMsr
p1015
(dp1016
g6
I-37
sg7
S'ayim'
p1017
sg9
S'1C:BD:B9:89:D6:44'
p1018
sba(i__main__
singleMsr
p1019
(dp1020
g6
I-75
sg7
S'eth'
p1021
sg9
S'00:03:52:5D:18:60'
p1022
sba(i__main__
singleMsr
p1023
(dp1024
g6
I-76
sg7
S'public'
p1025
sg9
S'00:03:52:5D:18:61'
p1026
sba(i__main__
singleMsr
p1027
(dp1028
g6
I-77
sg7
S'MOBILE-EAPSIM'
p1029
sg9
S'00:03:52:5D:18:62'
p1030
sbasS'id'
p1031
I14
sS'label'
p1032
S'cube_room'
p1033
sa.