(lp0
(dp1
S'measurements'
p2
(lp3
(isingleMsr
singleMsr
p4
(dp5
S'signalStrength'
p6
I-60
sS'ESSID'
p7
S'eth'
p8
sS'address'
p9
S'00:03:52:5D:2C:C0'
p10
sba(isingleMsr
singleMsr
p11
(dp12
g6
I-60
sg7
S'public'
p13
sg9
S'00:03:52:5D:2C:C1'
p14
sba(isingleMsr
singleMsr
p15
(dp16
g6
I-60
sg7
S'MOBILE-EAPSIM'
p17
sg9
S'00:03:52:5D:2C:C2'
p18
sba(isingleMsr
singleMsr
p19
(dp20
g6
I-60
sg7
S'eduroam'
p21
sg9
S'00:03:52:5D:2C:C3'
p22
sba(isingleMsr
singleMsr
p23
(dp24
g6
I-67
sg7
S'eth'
p25
sg9
S'00:03:52:5D:18:60'
p26
sba(isingleMsr
singleMsr
p27
(dp28
g6
I-67
sg7
S'public'
p29
sg9
S'00:03:52:5D:18:61'
p30
sba(isingleMsr
singleMsr
p31
(dp32
g6
I-67
sg7
S'MOBILE-EAPSIM'
p33
sg9
S'00:03:52:5D:18:62'
p34
sba(isingleMsr
singleMsr
p35
(dp36
g6
I-68
sg7
S'eduroam'
p37
sg9
S'00:03:52:5D:18:63'
p38
sba(isingleMsr
singleMsr
p39
(dp40
g6
I-74
sg7
S'eth'
p41
sg9
S'00:03:52:5D:19:50'
p42
sba(isingleMsr
singleMsr
p43
(dp44
g6
I-74
sg7
S'public'
p45
sg9
S'00:03:52:5D:19:51'
p46
sba(isingleMsr
singleMsr
p47
(dp48
g6
I-74
sg7
S'MOBILE-EAPSIM'
p49
sg9
S'00:03:52:5D:19:52'
p50
sba(isingleMsr
singleMsr
p51
(dp52
g6
I-74
sg7
S'eduroam'
p53
sg9
S'00:03:52:5D:19:53'
p54
sba(isingleMsr
singleMsr
p55
(dp56
g6
I-59
sg7
S'fma-d'
p57
sg9
S'34:08:04:24:E1:E6'
p58
sbasS'id'
p59
I0
sS'label'
p60
S'mlk35'
p61
sa(dp62
S'measurements'
p63
(lp64
(isingleMsr
singleMsr
p65
(dp66
g6
I-49
sg7
S'eth'
p67
sg9
S'00:03:52:5D:2C:C0'
p68
sba(isingleMsr
singleMsr
p69
(dp70
g6
I-50
sg7
S'public'
p71
sg9
S'00:03:52:5D:2C:C1'
p72
sba(isingleMsr
singleMsr
p73
(dp74
g6
I-50
sg7
S'MOBILE-EAPSIM'
p75
sg9
S'00:03:52:5D:2C:C2'
p76
sba(isingleMsr
singleMsr
p77
(dp78
g6
I-50
sg7
S'eduroam'
p79
sg9
S'00:03:52:5D:2C:C3'
p80
sba(isingleMsr
singleMsr
p81
(dp82
g6
I-56
sg7
S'eth'
p83
sg9
S'00:03:52:5D:18:60'
p84
sba(isingleMsr
singleMsr
p85
(dp86
g6
I-56
sg7
S'public'
p87
sg9
S'00:03:52:5D:18:61'
p88
sba(isingleMsr
singleMsr
p89
(dp90
g6
I-57
sg7
S'MOBILE-EAPSIM'
p91
sg9
S'00:03:52:5D:18:62'
p92
sba(isingleMsr
singleMsr
p93
(dp94
g6
I-57
sg7
S'eduroam'
p95
sg9
S'00:03:52:5D:18:63'
p96
sba(isingleMsr
singleMsr
p97
(dp98
g6
I-84
sg7
S'eth'
p99
sg9
S'00:03:52:5D:3E:10'
p100
sba(isingleMsr
singleMsr
p101
(dp102
g6
I-85
sg7
S'public'
p103
sg9
S'00:03:52:5D:3E:11'
p104
sba(isingleMsr
singleMsr
p105
(dp106
g6
I-58
sg7
S'fma-d'
p107
sg9
S'34:08:04:24:E1:E6'
p108
sba(isingleMsr
singleMsr
p109
(dp110
g6
I-73
sg7
S'eth'
p111
sg9
S'00:03:52:5D:19:50'
p112
sba(isingleMsr
singleMsr
p113
(dp114
g6
I-74
sg7
S'public'
p115
sg9
S'00:03:52:5D:19:51'
p116
sba(isingleMsr
singleMsr
p117
(dp118
g6
I-74
sg7
S'MOBILE-EAPSIM'
p119
sg9
S'00:03:52:5D:19:52'
p120
sba(isingleMsr
singleMsr
p121
(dp122
g6
I-73
sg7
S'eduroam'
p123
sg9
S'00:03:52:5D:19:53'
p124
sba(isingleMsr
singleMsr
p125
(dp126
g6
I-75
sg7
S'eduroam'
p127
sg9
S'00:03:52:5D:26:F3'
p128
sbasS'id'
p129
I1
sS'label'
p130
S'mlk35'
p131
sa(dp132
S'measurements'
p133
(lp134
(isingleMsr
singleMsr
p135
(dp136
g6
I-54
sg7
S'eth'
p137
sg9
S'00:03:52:5D:2C:C0'
p138
sba(isingleMsr
singleMsr
p139
(dp140
g6
I-54
sg7
S'public'
p141
sg9
S'00:03:52:5D:2C:C1'
p142
sba(isingleMsr
singleMsr
p143
(dp144
g6
I-54
sg7
S'MOBILE-EAPSIM'
p145
sg9
S'00:03:52:5D:2C:C2'
p146
sba(isingleMsr
singleMsr
p147
(dp148
g6
I-54
sg7
S'eduroam'
p149
sg9
S'00:03:52:5D:2C:C3'
p150
sba(isingleMsr
singleMsr
p151
(dp152
g6
I-83
sg7
S'ayim'
p153
sg9
S'00:1C:10:8F:06:F4'
p154
sba(isingleMsr
singleMsr
p155
(dp156
g6
I-50
sg7
S'eth'
p157
sg9
S'00:03:52:5D:18:60'
p158
sba(isingleMsr
singleMsr
p159
(dp160
g6
I-50
sg7
S'public'
p161
sg9
S'00:03:52:5D:18:61'
p162
sba(isingleMsr
singleMsr
p163
(dp164
g6
I-50
sg7
S'MOBILE-EAPSIM'
p165
sg9
S'00:03:52:5D:18:62'
p166
sba(isingleMsr
singleMsr
p167
(dp168
g6
I-50
sg7
S'eduroam'
p169
sg9
S'00:03:52:5D:18:63'
p170
sba(isingleMsr
singleMsr
p171
(dp172
g6
I-76
sg7
S'eduroam'
p173
sg9
S'00:03:52:5D:26:F3'
p174
sba(isingleMsr
singleMsr
p175
(dp176
g6
I-73
sg7
S'eth'
p177
sg9
S'00:03:52:5D:26:F0'
p178
sba(isingleMsr
singleMsr
p179
(dp180
g6
I-74
sg7
S'public'
p181
sg9
S'00:03:52:5D:26:F1'
p182
sba(isingleMsr
singleMsr
p183
(dp184
g6
I-75
sg7
S'MOBILE-EAPSIM'
p185
sg9
S'00:03:52:5D:26:F2'
p186
sba(isingleMsr
singleMsr
p187
(dp188
g6
I-55
sg7
S'fma-d'
p189
sg9
S'34:08:04:24:E1:E6'
p190
sbasS'id'
p191
I2
sS'label'
p192
S'mlk35'
p193
sa(dp194
S'measurements'
p195
(lp196
(isingleMsr
singleMsr
p197
(dp198
g6
I-66
sg7
S'public'
p199
sg9
S'00:03:52:5D:18:61'
p200
sba(isingleMsr
singleMsr
p201
(dp202
g6
I-66
sg7
S'MOBILE-EAPSIM'
p203
sg9
S'00:03:52:5D:18:62'
p204
sba(isingleMsr
singleMsr
p205
(dp206
g6
I-64
sg7
S'eduroam'
p207
sg9
S'00:03:52:5D:18:63'
p208
sba(isingleMsr
singleMsr
p209
(dp210
g6
I-64
sg7
S'eth'
p211
sg9
S'00:03:52:5D:18:60'
p212
sba(isingleMsr
singleMsr
p213
(dp214
g6
I-74
sg7
S'eth'
p215
sg9
S'00:03:52:5D:19:50'
p216
sba(isingleMsr
singleMsr
p217
(dp218
g6
I-74
sg7
S'public'
p219
sg9
S'00:03:52:5D:19:51'
p220
sba(isingleMsr
singleMsr
p221
(dp222
g6
I-76
sg7
S'MOBILE-EAPSIM'
p223
sg9
S'00:03:52:5D:19:52'
p224
sba(isingleMsr
singleMsr
p225
(dp226
g6
I-76
sg7
S'eduroam'
p227
sg9
S'00:03:52:5D:19:53'
p228
sba(isingleMsr
singleMsr
p229
(dp230
g6
I-78
sg7
S'eth'
p231
sg9
S'00:03:52:5D:26:F0'
p232
sba(isingleMsr
singleMsr
p233
(dp234
g6
I-77
sg7
S'public'
p235
sg9
S'00:03:52:5D:26:F1'
p236
sba(isingleMsr
singleMsr
p237
(dp238
g6
I-78
sg7
S'MOBILE-EAPSIM'
p239
sg9
S'00:03:52:5D:26:F2'
p240
sba(isingleMsr
singleMsr
p241
(dp242
g6
I-77
sg7
S'eduroam'
p243
sg9
S'00:03:52:5D:26:F3'
p244
sba(isingleMsr
singleMsr
p245
(dp246
g6
I-56
sg7
S'fma-d'
p247
sg9
S'34:08:04:24:E1:E6'
p248
sba(isingleMsr
singleMsr
p249
(dp250
g6
I-53
sg7
S'eth'
p251
sg9
S'00:03:52:5D:2C:C0'
p252
sba(isingleMsr
singleMsr
p253
(dp254
g6
I-54
sg7
S'public'
p255
sg9
S'00:03:52:5D:2C:C1'
p256
sba(isingleMsr
singleMsr
p257
(dp258
g6
I-53
sg7
S'MOBILE-EAPSIM'
p259
sg9
S'00:03:52:5D:2C:C2'
p260
sba(isingleMsr
singleMsr
p261
(dp262
g6
I-53
sg7
S'eduroam'
p263
sg9
S'00:03:52:5D:2C:C3'
p264
sbasS'id'
p265
I3
sS'label'
p266
S'mlk35'
p267
sa(dp268
S'measurements'
p269
(lp270
(isingleMsr
singleMsr
p271
(dp272
g6
I-57
sg7
S'eth'
p273
sg9
S'00:03:52:5D:2C:C0'
p274
sba(isingleMsr
singleMsr
p275
(dp276
g6
I-57
sg7
S'public'
p277
sg9
S'00:03:52:5D:2C:C1'
p278
sba(isingleMsr
singleMsr
p279
(dp280
g6
I-57
sg7
S'MOBILE-EAPSIM'
p281
sg9
S'00:03:52:5D:2C:C2'
p282
sba(isingleMsr
singleMsr
p283
(dp284
g6
I-88
sg7
S'eth'
p285
sg9
S'00:03:52:1C:31:F0'
p286
sba(isingleMsr
singleMsr
p287
(dp288
g6
I-87
sg7
S'MOBILE-EAPSIM'
p289
sg9
S'00:03:52:1C:31:F2'
p290
sba(isingleMsr
singleMsr
p291
(dp292
g6
I-87
sg7
S'eduroam'
p293
sg9
S'00:03:52:1C:31:F3'
p294
sba(isingleMsr
singleMsr
p295
(dp296
g6
I-56
sg7
S'eduroam'
p297
sg9
S'00:03:52:5D:2C:C3'
p298
sba(isingleMsr
singleMsr
p299
(dp300
g6
I-66
sg7
S'eth'
p301
sg9
S'00:03:52:5D:18:60'
p302
sba(isingleMsr
singleMsr
p303
(dp304
g6
I-65
sg7
S'public'
p305
sg9
S'00:03:52:5D:18:61'
p306
sba(isingleMsr
singleMsr
p307
(dp308
g6
I-66
sg7
S'MOBILE-EAPSIM'
p309
sg9
S'00:03:52:5D:18:62'
p310
sba(isingleMsr
singleMsr
p311
(dp312
g6
I-66
sg7
S'eduroam'
p313
sg9
S'00:03:52:5D:18:63'
p314
sba(isingleMsr
singleMsr
p315
(dp316
g6
I-76
sg7
S'public'
p317
sg9
S'00:03:52:5D:26:F1'
p318
sba(isingleMsr
singleMsr
p319
(dp320
g6
I-76
sg7
S'MOBILE-EAPSIM'
p321
sg9
S'00:03:52:5D:26:F2'
p322
sba(isingleMsr
singleMsr
p323
(dp324
g6
I-89
sg7
S'eduroam'
p325
sg9
S'00:03:52:5D:26:F3'
p326
sba(isingleMsr
singleMsr
p327
(dp328
g6
I-77
sg7
S'eth'
p329
sg9
S'00:03:52:5D:19:50'
p330
sba(isingleMsr
singleMsr
p331
(dp332
g6
I-77
sg7
S'public'
p333
sg9
S'00:03:52:5D:19:51'
p334
sba(isingleMsr
singleMsr
p335
(dp336
g6
I-77
sg7
S'MOBILE-EAPSIM'
p337
sg9
S'00:03:52:5D:19:52'
p338
sbasS'id'
p339
I4
sS'label'
p340
S'mlk35'
p341
sa(dp342
S'measurements'
p343
(lp344
(isingleMsr
singleMsr
p345
(dp346
g6
I-43
sg7
S'eth'
p347
sg9
S'00:03:52:5D:18:60'
p348
sba(isingleMsr
singleMsr
p349
(dp350
g6
I-44
sg7
S'public'
p351
sg9
S'00:03:52:5D:18:61'
p352
sba(isingleMsr
singleMsr
p353
(dp354
g6
I-44
sg7
S'MOBILE-EAPSIM'
p355
sg9
S'00:03:52:5D:18:62'
p356
sba(isingleMsr
singleMsr
p357
(dp358
g6
I-44
sg7
S'eduroam'
p359
sg9
S'00:03:52:5D:18:63'
p360
sba(isingleMsr
singleMsr
p361
(dp362
g6
I-66
sg7
S'eth'
p363
sg9
S'00:03:52:5D:19:50'
p364
sba(isingleMsr
singleMsr
p365
(dp366
g6
I-66
sg7
S'public'
p367
sg9
S'00:03:52:5D:19:51'
p368
sba(isingleMsr
singleMsr
p369
(dp370
g6
I-67
sg7
S'MOBILE-EAPSIM'
p371
sg9
S'00:03:52:5D:19:52'
p372
sba(isingleMsr
singleMsr
p373
(dp374
g6
I-67
sg7
S'eduroam'
p375
sg9
S'00:03:52:5D:19:53'
p376
sba(isingleMsr
singleMsr
p377
(dp378
g6
I-72
sg7
S'fma-d'
p379
sg9
S'34:08:04:24:E1:E6'
p380
sba(isingleMsr
singleMsr
p381
(dp382
g6
I-74
sg7
S'eth'
p383
sg9
S'00:03:52:5D:2C:C0'
p384
sba(isingleMsr
singleMsr
p385
(dp386
g6
I-75
sg7
S'public'
p387
sg9
S'00:03:52:5D:2C:C1'
p388
sba(isingleMsr
singleMsr
p389
(dp390
g6
I-74
sg7
S'MOBILE-EAPSIM'
p391
sg9
S'00:03:52:5D:2C:C2'
p392
sba(isingleMsr
singleMsr
p393
(dp394
g6
I-74
sg7
S'eduroam'
p395
sg9
S'00:03:52:5D:2C:C3'
p396
sba(isingleMsr
singleMsr
p397
(dp398
g6
I-84
sg7
S'ayim'
p399
sg9
S'1C:BD:B9:89:D6:44'
p400
sbasS'id'
p401
I5
sS'label'
p402
S'mlk_kitchen'
p403
sa(dp404
S'measurements'
p405
(lp406
(isingleMsr
singleMsr
p407
(dp408
g6
I-44
sg7
S'eth'
p409
sg9
S'00:03:52:5D:18:60'
p410
sba(isingleMsr
singleMsr
p411
(dp412
g6
I-43
sg7
S'public'
p413
sg9
S'00:03:52:5D:18:61'
p414
sba(isingleMsr
singleMsr
p415
(dp416
g6
I-44
sg7
S'MOBILE-EAPSIM'
p417
sg9
S'00:03:52:5D:18:62'
p418
sba(isingleMsr
singleMsr
p419
(dp420
g6
I-44
sg7
S'eduroam'
p421
sg9
S'00:03:52:5D:18:63'
p422
sba(isingleMsr
singleMsr
p423
(dp424
g6
I-64
sg7
S'MOBILE-EAPSIM'
p425
sg9
S'00:03:52:5D:19:52'
p426
sba(isingleMsr
singleMsr
p427
(dp428
g6
I-63
sg7
S'eth'
p429
sg9
S'00:03:52:5D:19:50'
p430
sba(isingleMsr
singleMsr
p431
(dp432
g6
I-63
sg7
S'public'
p433
sg9
S'00:03:52:5D:19:51'
p434
sba(isingleMsr
singleMsr
p435
(dp436
g6
I-63
sg7
S'eduroam'
p437
sg9
S'00:03:52:5D:19:53'
p438
sba(isingleMsr
singleMsr
p439
(dp440
g6
I-72
sg7
S'fma-d'
p441
sg9
S'34:08:04:24:E1:E6'
p442
sba(isingleMsr
singleMsr
p443
(dp444
g6
I-72
sg7
S'eth'
p445
sg9
S'00:03:52:5D:2C:C0'
p446
sba(isingleMsr
singleMsr
p447
(dp448
g6
I-72
sg7
S'public'
p449
sg9
S'00:03:52:5D:2C:C1'
p450
sba(isingleMsr
singleMsr
p451
(dp452
g6
I-72
sg7
S'MOBILE-EAPSIM'
p453
sg9
S'00:03:52:5D:2C:C2'
p454
sba(isingleMsr
singleMsr
p455
(dp456
g6
I-72
sg7
S'eduroam'
p457
sg9
S'00:03:52:5D:2C:C3'
p458
sba(isingleMsr
singleMsr
p459
(dp460
g6
I-72
sg7
S'public-5'
p461
sg9
S'00:03:52:B1:F5:C7'
p462
sba(isingleMsr
singleMsr
p463
(dp464
g6
I-72
sg7
S'eth-5'
p465
sg9
S'00:03:52:B1:F5:C8'
p466
sbasS'id'
p467
I6
sS'label'
p468
S'mlk_kitchen'
p469
sa(dp470
S'measurements'
p471
(lp472
(isingleMsr
singleMsr
p473
(dp474
g6
I-55
sg7
S'eth'
p475
sg9
S'00:03:52:5D:18:60'
p476
sba(isingleMsr
singleMsr
p477
(dp478
g6
I-55
sg7
S'public'
p479
sg9
S'00:03:52:5D:18:61'
p480
sba(isingleMsr
singleMsr
p481
(dp482
g6
I-55
sg7
S'MOBILE-EAPSIM'
p483
sg9
S'00:03:52:5D:18:62'
p484
sba(isingleMsr
singleMsr
p485
(dp486
g6
I-55
sg7
S'eduroam'
p487
sg9
S'00:03:52:5D:18:63'
p488
sba(isingleMsr
singleMsr
p489
(dp490
g6
I-80
sg7
S'eth'
p491
sg9
S'00:03:52:5D:2A:90'
p492
sba(isingleMsr
singleMsr
p493
(dp494
g6
I-79
sg7
S'public'
p495
sg9
S'00:03:52:5D:2A:91'
p496
sba(isingleMsr
singleMsr
p497
(dp498
g6
I-80
sg7
S'MOBILE-EAPSIM'
p499
sg9
S'00:03:52:5D:2A:92'
p500
sba(isingleMsr
singleMsr
p501
(dp502
g6
I-81
sg7
S'eduroam'
p503
sg9
S'00:03:52:5D:2A:93'
p504
sba(isingleMsr
singleMsr
p505
(dp506
g6
I-80
sg7
S'fma-d'
p507
sg9
S'34:08:04:24:E1:E6'
p508
sba(isingleMsr
singleMsr
p509
(dp510
g6
I-73
sg7
S'eth'
p511
sg9
S'00:03:52:5D:2C:C0'
p512
sba(isingleMsr
singleMsr
p513
(dp514
g6
I-74
sg7
S'public'
p515
sg9
S'00:03:52:5D:2C:C1'
p516
sba(isingleMsr
singleMsr
p517
(dp518
g6
I-74
sg7
S'MOBILE-EAPSIM'
p519
sg9
S'00:03:52:5D:2C:C2'
p520
sba(isingleMsr
singleMsr
p521
(dp522
g6
I-73
sg7
S'eduroam'
p523
sg9
S'00:03:52:5D:2C:C3'
p524
sbasS'id'
p525
I7
sS'label'
p526
S'mlk_kitchen'
p527
sa(dp528
S'measurements'
p529
(lp530
(isingleMsr
singleMsr
p531
(dp532
g6
I-52
sg7
S'eth'
p533
sg9
S'00:03:52:5D:18:60'
p534
sba(isingleMsr
singleMsr
p535
(dp536
g6
I-52
sg7
S'public'
p537
sg9
S'00:03:52:5D:18:61'
p538
sba(isingleMsr
singleMsr
p539
(dp540
g6
I-52
sg7
S'MOBILE-EAPSIM'
p541
sg9
S'00:03:52:5D:18:62'
p542
sba(isingleMsr
singleMsr
p543
(dp544
g6
I-52
sg7
S'eduroam'
p545
sg9
S'00:03:52:5D:18:63'
p546
sba(isingleMsr
singleMsr
p547
(dp548
g6
I-77
sg7
S'eth'
p549
sg9
S'00:03:52:5D:19:50'
p550
sba(isingleMsr
singleMsr
p551
(dp552
g6
I-75
sg7
S'public'
p553
sg9
S'00:03:52:5D:19:51'
p554
sba(isingleMsr
singleMsr
p555
(dp556
g6
I-76
sg7
S'MOBILE-EAPSIM'
p557
sg9
S'00:03:52:5D:19:52'
p558
sba(isingleMsr
singleMsr
p559
(dp560
g6
I-76
sg7
S'eduroam'
p561
sg9
S'00:03:52:5D:19:53'
p562
sba(isingleMsr
singleMsr
p563
(dp564
g6
I-81
sg7
S'public'
p565
sg9
S'00:03:52:5D:26:F1'
p566
sba(isingleMsr
singleMsr
p567
(dp568
g6
I-82
sg7
S'MOBILE-EAPSIM'
p569
sg9
S'00:03:52:5D:26:F2'
p570
sba(isingleMsr
singleMsr
p571
(dp572
g6
I-84
sg7
S'fma-d'
p573
sg9
S'34:08:04:24:E1:E6'
p574
sba(isingleMsr
singleMsr
p575
(dp576
g6
I-76
sg7
S'eth'
p577
sg9
S'00:03:52:5D:2C:C0'
p578
sba(isingleMsr
singleMsr
p579
(dp580
g6
I-74
sg7
S'public'
p581
sg9
S'00:03:52:5D:2C:C1'
p582
sba(isingleMsr
singleMsr
p583
(dp584
g6
I-76
sg7
S'MOBILE-EAPSIM'
p585
sg9
S'00:03:52:5D:2C:C2'
p586
sba(isingleMsr
singleMsr
p587
(dp588
g6
I-75
sg7
S'eduroam'
p589
sg9
S'00:03:52:5D:2C:C3'
p590
sba(isingleMsr
singleMsr
p591
(dp592
g6
I-85
sg7
S'public-5'
p593
sg9
S'00:03:52:B1:F5:C7'
p594
sba(isingleMsr
singleMsr
p595
(dp596
g6
I-86
sg7
S'eth-5'
p597
sg9
S'00:03:52:B1:F5:C8'
p598
sbasS'id'
p599
I8
sS'label'
p600
S'mlk_kitchen'
p601
sa(dp602
S'measurements'
p603
(lp604
(isingleMsr
singleMsr
p605
(dp606
g6
I-82
sg7
S'eth'
p607
sg9
S'00:03:52:5D:26:F0'
p608
sba(isingleMsr
singleMsr
p609
(dp610
g6
I-81
sg7
S'public'
p611
sg9
S'00:03:52:5D:26:F1'
p612
sba(isingleMsr
singleMsr
p613
(dp614
g6
I-78
sg7
S'public'
p615
sg9
S'00:03:52:5D:2A:91'
p616
sba(isingleMsr
singleMsr
p617
(dp618
g6
I-78
sg7
S'MOBILE-EAPSIM'
p619
sg9
S'00:03:52:5D:2A:92'
p620
sba(isingleMsr
singleMsr
p621
(dp622
g6
I-52
sg7
S'eduroam'
p623
sg9
S'00:03:52:5D:18:63'
p624
sba(isingleMsr
singleMsr
p625
(dp626
g6
I-73
sg7
S'eth'
p627
sg9
S'00:03:52:5D:2C:C0'
p628
sba(isingleMsr
singleMsr
p629
(dp630
g6
I-74
sg7
S'public'
p631
sg9
S'00:03:52:5D:2C:C1'
p632
sba(isingleMsr
singleMsr
p633
(dp634
g6
I-74
sg7
S'MOBILE-EAPSIM'
p635
sg9
S'00:03:52:5D:2C:C2'
p636
sba(isingleMsr
singleMsr
p637
(dp638
g6
I-73
sg7
S'eduroam'
p639
sg9
S'00:03:52:5D:2C:C3'
p640
sba(isingleMsr
singleMsr
p641
(dp642
g6
I-52
sg7
S'MOBILE-EAPSIM'
p643
sg9
S'00:03:52:5D:18:62'
p644
sba(isingleMsr
singleMsr
p645
(dp646
g6
I-51
sg7
S'eth'
p647
sg9
S'00:03:52:5D:18:60'
p648
sba(isingleMsr
singleMsr
p649
(dp650
g6
I-51
sg7
S'public'
p651
sg9
S'00:03:52:5D:18:61'
p652
sbasS'id'
p653
I9
sS'label'
p654
S'mlk_kitchen'
p655
sa(dp656
S'measurements'
p657
(lp658
(isingleMsr
singleMsr
p659
(dp660
g6
I-49
sg7
S'eth'
p661
sg9
S'00:03:52:5D:26:F0'
p662
sba(isingleMsr
singleMsr
p663
(dp664
g6
I-49
sg7
S'public'
p665
sg9
S'00:03:52:5D:26:F1'
p666
sba(isingleMsr
singleMsr
p667
(dp668
g6
I-49
sg7
S'MOBILE-EAPSIM'
p669
sg9
S'00:03:52:5D:26:F2'
p670
sba(isingleMsr
singleMsr
p671
(dp672
g6
I-49
sg7
S'eduroam'
p673
sg9
S'00:03:52:5D:26:F3'
p674
sba(isingleMsr
singleMsr
p675
(dp676
g6
I-68
sg7
S'eth'
p677
sg9
S'00:03:52:5D:2D:70'
p678
sba(isingleMsr
singleMsr
p679
(dp680
g6
I-69
sg7
S'public'
p681
sg9
S'00:03:52:5D:2D:71'
p682
sba(isingleMsr
singleMsr
p683
(dp684
g6
I-68
sg7
S'MOBILE-EAPSIM'
p685
sg9
S'00:03:52:5D:2D:72'
p686
sba(isingleMsr
singleMsr
p687
(dp688
g6
I-68
sg7
S'eduroam'
p689
sg9
S'00:03:52:5D:2D:73'
p690
sba(isingleMsr
singleMsr
p691
(dp692
g6
I-81
sg7
S'eth'
p693
sg9
S'00:03:52:5D:2C:C0'
p694
sba(isingleMsr
singleMsr
p695
(dp696
g6
I-80
sg7
S'public'
p697
sg9
S'00:03:52:5D:2C:C1'
p698
sba(isingleMsr
singleMsr
p699
(dp700
g6
I-80
sg7
S'MOBILE-EAPSIM'
p701
sg9
S'00:03:52:5D:2C:C2'
p702
sba(isingleMsr
singleMsr
p703
(dp704
g6
I-82
sg7
S'eduroam'
p705
sg9
S'00:03:52:5D:2C:C3'
p706
sba(isingleMsr
singleMsr
p707
(dp708
g6
I-45
sg7
S'ayim'
p709
sg9
S'1C:BD:B9:89:D6:44'
p710
sba(isingleMsr
singleMsr
p711
(dp712
g6
I-41
sg7
S'ayim'
p713
sg9
S'00:1C:10:8F:06:F4'
p714
sba(isingleMsr
singleMsr
p715
(dp716
g6
I-70
sg7
S'eth'
p717
sg9
S'00:03:52:5D:18:60'
p718
sba(isingleMsr
singleMsr
p719
(dp720
g6
I-70
sg7
S'public'
p721
sg9
S'00:03:52:5D:18:61'
p722
sba(isingleMsr
singleMsr
p723
(dp724
g6
I-70
sg7
S'MOBILE-EAPSIM'
p725
sg9
S'00:03:52:5D:18:62'
p726
sba(isingleMsr
singleMsr
p727
(dp728
g6
I-70
sg7
S'eduroam'
p729
sg9
S'00:03:52:5D:18:63'
p730
sbasS'id'
p731
I10
sS'label'
p732
S'cube_room'
p733
sa(dp734
S'measurements'
p735
(lp736
(isingleMsr
singleMsr
p737
(dp738
g6
I-76
sg7
S'eduroam'
p739
sg9
S'00:03:52:5D:2D:73'
p740
sba(isingleMsr
singleMsr
p741
(dp742
g6
I-52
sg7
S'eth'
p743
sg9
S'00:03:52:5D:26:F0'
p744
sba(isingleMsr
singleMsr
p745
(dp746
g6
I-51
sg7
S'public'
p747
sg9
S'00:03:52:5D:26:F1'
p748
sba(isingleMsr
singleMsr
p749
(dp750
g6
I-52
sg7
S'MOBILE-EAPSIM'
p751
sg9
S'00:03:52:5D:26:F2'
p752
sba(isingleMsr
singleMsr
p753
(dp754
g6
I-52
sg7
S'eduroam'
p755
sg9
S'00:03:52:5D:26:F3'
p756
sba(isingleMsr
singleMsr
p757
(dp758
g6
I-86
sg7
S'public'
p759
sg9
S'00:03:52:5D:2A:91'
p760
sba(isingleMsr
singleMsr
p761
(dp762
g6
I-83
sg7
S'fma-d'
p763
sg9
S'34:08:04:24:E1:E6'
p764
sba(isingleMsr
singleMsr
p765
(dp766
g6
I-77
sg7
S'public'
p767
sg9
S'00:03:52:5D:2D:71'
p768
sba(isingleMsr
singleMsr
p769
(dp770
g6
I-77
sg7
S'eth'
p771
sg9
S'00:03:52:5D:2C:C0'
p772
sba(isingleMsr
singleMsr
p773
(dp774
g6
I-76
sg7
S'public'
p775
sg9
S'00:03:52:5D:2C:C1'
p776
sba(isingleMsr
singleMsr
p777
(dp778
g6
I-76
sg7
S'MOBILE-EAPSIM'
p779
sg9
S'00:03:52:5D:2C:C2'
p780
sba(isingleMsr
singleMsr
p781
(dp782
g6
I-33
sg7
S'ayim'
p783
sg9
S'00:1C:10:8F:06:F4'
p784
sba(isingleMsr
singleMsr
p785
(dp786
g6
I-47
sg7
S'ayim'
p787
sg9
S'1C:BD:B9:89:D6:44'
p788
sba(isingleMsr
singleMsr
p789
(dp790
g6
I-79
sg7
S'eth'
p791
sg9
S'00:0F:61:1A:21:70'
p792
sba(isingleMsr
singleMsr
p793
(dp794
g6
I-79
sg7
S'public'
p795
sg9
S'00:0F:61:1A:21:71'
p796
sba(isingleMsr
singleMsr
p797
(dp798
g6
I-79
sg7
S'MOBILE-EAPSIM'
p799
sg9
S'00:0F:61:1A:21:72'
p800
sba(isingleMsr
singleMsr
p801
(dp802
g6
I-64
sg7
S'eth'
p803
sg9
S'00:03:52:5D:18:60'
p804
sbasS'id'
p805
I11
sS'label'
p806
S'cube_room'
p807
sa(dp808
S'measurements'
p809
(lp810
(isingleMsr
singleMsr
p811
(dp812
g6
I-47
sg7
S'eth'
p813
sg9
S'00:03:52:5D:26:F0'
p814
sba(isingleMsr
singleMsr
p815
(dp816
g6
I-81
sg7
S'eth'
p817
sg9
S'00:03:52:5D:2D:70'
p818
sba(isingleMsr
singleMsr
p819
(dp820
g6
I-80
sg7
S'public'
p821
sg9
S'00:03:52:5D:2D:71'
p822
sba(isingleMsr
singleMsr
p823
(dp824
g6
I-80
sg7
S'MOBILE-EAPSIM'
p825
sg9
S'00:03:52:5D:2D:72'
p826
sba(isingleMsr
singleMsr
p827
(dp828
g6
I-47
sg7
S'public'
p829
sg9
S'00:03:52:5D:26:F1'
p830
sba(isingleMsr
singleMsr
p831
(dp832
g6
I-79
sg7
S'eduroam'
p833
sg9
S'00:03:52:5D:2D:73'
p834
sba(isingleMsr
singleMsr
p835
(dp836
g6
I-47
sg7
S'MOBILE-EAPSIM'
p837
sg9
S'00:03:52:5D:26:F2'
p838
sba(isingleMsr
singleMsr
p839
(dp840
g6
I-47
sg7
S'eduroam'
p841
sg9
S'00:03:52:5D:26:F3'
p842
sba(isingleMsr
singleMsr
p843
(dp844
g6
I-75
sg7
S'MOBILE-EAPSIM'
p845
sg9
S'00:03:52:5D:2C:C2'
p846
sba(isingleMsr
singleMsr
p847
(dp848
g6
I-72
sg7
S'eduroam'
p849
sg9
S'00:03:52:5D:2C:C3'
p850
sba(isingleMsr
singleMsr
p851
(dp852
g6
I-71
sg7
S'eth'
p853
sg9
S'00:03:52:1C:31:F0'
p854
sba(isingleMsr
singleMsr
p855
(dp856
g6
I-73
sg7
S'public'
p857
sg9
S'00:03:52:1C:31:F1'
p858
sba(isingleMsr
singleMsr
p859
(dp860
g6
I-73
sg7
S'MOBILE-EAPSIM'
p861
sg9
S'00:03:52:1C:31:F2'
p862
sba(isingleMsr
singleMsr
p863
(dp864
g6
I-73
sg7
S'eduroam'
p865
sg9
S'00:03:52:1C:31:F3'
p866
sba(isingleMsr
singleMsr
p867
(dp868
g6
I-75
sg7
S'eth'
p869
sg9
S'00:03:52:5D:2C:C0'
p870
sba(isingleMsr
singleMsr
p871
(dp872
g6
I-75
sg7
S'public'
p873
sg9
S'00:03:52:5D:2C:C1'
p874
sba(isingleMsr
singleMsr
p875
(dp876
g6
I-40
sg7
S'ayim'
p877
sg9
S'00:1C:10:8F:06:F4'
p878
sbasS'id'
p879
I12
sS'label'
p880
S'cube_room'
p881
sa(dp882
S'measurements'
p883
(lp884
(isingleMsr
singleMsr
p885
(dp886
g6
I-50
sg7
S'MOBILE-EAPSIM'
p887
sg9
S'00:03:52:5D:26:F2'
p888
sba(isingleMsr
singleMsr
p889
(dp890
g6
I-49
sg7
S'eduroam'
p891
sg9
S'00:03:52:5D:26:F3'
p892
sba(isingleMsr
singleMsr
p893
(dp894
g6
I-79
sg7
S'eth'
p895
sg9
S'00:03:52:5D:2C:C0'
p896
sba(isingleMsr
singleMsr
p897
(dp898
g6
I-77
sg7
S'public'
p899
sg9
S'00:03:52:5D:2C:C1'
p900
sba(isingleMsr
singleMsr
p901
(dp902
g6
I-78
sg7
S'MOBILE-EAPSIM'
p903
sg9
S'00:03:52:5D:2C:C2'
p904
sba(isingleMsr
singleMsr
p905
(dp906
g6
I-82
sg7
S'eth'
p907
sg9
S'00:03:52:1C:18:30'
p908
sba(isingleMsr
singleMsr
p909
(dp910
g6
I-78
sg7
S'eduroam'
p911
sg9
S'00:03:52:5D:2C:C3'
p912
sba(isingleMsr
singleMsr
p913
(dp914
g6
I-83
sg7
S'public'
p915
sg9
S'00:03:52:1C:18:31'
p916
sba(isingleMsr
singleMsr
p917
(dp918
g6
I-82
sg7
S'MOBILE-EAPSIM'
p919
sg9
S'00:03:52:1C:18:32'
p920
sba(isingleMsr
singleMsr
p921
(dp922
g6
I-49
sg7
S'eth'
p923
sg9
S'00:03:52:5D:26:F0'
p924
sba(isingleMsr
singleMsr
p925
(dp926
g6
I-49
sg7
S'public'
p927
sg9
S'00:03:52:5D:26:F1'
p928
sba(isingleMsr
singleMsr
p929
(dp930
g6
I-43
sg7
S'ayim'
p931
sg9
S'1C:BD:B9:89:D6:44'
p932
sba(isingleMsr
singleMsr
p933
(dp934
g6
I-34
sg7
S'ayim'
p935
sg9
S'00:1C:10:8F:06:F4'
p936
sba(isingleMsr
singleMsr
p937
(dp938
g6
I-78
sg7
S'eth'
p939
sg9
S'00:03:52:1C:17:80'
p940
sba(isingleMsr
singleMsr
p941
(dp942
g6
I-76
sg7
S'eth'
p943
sg9
S'00:03:52:5D:18:60'
p944
sba(isingleMsr
singleMsr
p945
(dp946
g6
I-81
sg7
S'eth'
p947
sg9
S'00:0F:61:1A:21:70'
p948
sba(isingleMsr
singleMsr
p949
(dp950
g6
I-80
sg7
S'public'
p951
sg9
S'00:0F:61:1A:21:71'
p952
sbasS'id'
p953
I13
sS'label'
p954
S'cube_room'
p955
sa(dp956
S'measurements'
p957
(lp958
(isingleMsr
singleMsr
p959
(dp960
g6
I-46
sg7
S'eth'
p961
sg9
S'00:03:52:5D:26:F0'
p962
sba(isingleMsr
singleMsr
p963
(dp964
g6
I-45
sg7
S'public'
p965
sg9
S'00:03:52:5D:26:F1'
p966
sba(isingleMsr
singleMsr
p967
(dp968
g6
I-46
sg7
S'MOBILE-EAPSIM'
p969
sg9
S'00:03:52:5D:26:F2'
p970
sba(isingleMsr
singleMsr
p971
(dp972
g6
I-46
sg7
S'eduroam'
p973
sg9
S'00:03:52:5D:26:F3'
p974
sba(isingleMsr
singleMsr
p975
(dp976
g6
I-74
sg7
S'eth'
p977
sg9
S'00:03:52:5D:2D:70'
p978
sba(isingleMsr
singleMsr
p979
(dp980
g6
I-74
sg7
S'public'
p981
sg9
S'00:03:52:5D:2D:71'
p982
sba(isingleMsr
singleMsr
p983
(dp984
g6
I-74
sg7
S'MOBILE-EAPSIM'
p985
sg9
S'00:03:52:5D:2D:72'
p986
sba(isingleMsr
singleMsr
p987
(dp988
g6
I-31
sg7
S'ayim'
p989
sg9
S'00:1C:10:8F:06:F4'
p990
sba(isingleMsr
singleMsr
p991
(dp992
g6
I-77
sg7
S'MOBILE-EAPSIM'
p993
sg9
S'00:03:52:5D:2C:C2'
p994
sba(isingleMsr
singleMsr
p995
(dp996
g6
I-77
sg7
S'eduroam'
p997
sg9
S'00:03:52:5D:2C:C3'
p998
sba(isingleMsr
singleMsr
p999
(dp1000
g6
I-78
sg7
S'eth'
p1001
sg9
S'00:03:52:29:8F:60'
p1002
sba(isingleMsr
singleMsr
p1003
(dp1004
g6
I-77
sg7
S'public'
p1005
sg9
S'00:03:52:29:8F:61'
p1006
sba(isingleMsr
singleMsr
p1007
(dp1008
g6
I-78
sg7
S'MOBILE-EAPSIM'
p1009
sg9
S'00:03:52:29:8F:62'
p1010
sba(isingleMsr
singleMsr
p1011
(dp1012
g6
I-78
sg7
S'eduroam'
p1013
sg9
S'00:03:52:29:8F:63'
p1014
sba(isingleMsr
singleMsr
p1015
(dp1016
g6
I-37
sg7
S'ayim'
p1017
sg9
S'1C:BD:B9:89:D6:44'
p1018
sba(isingleMsr
singleMsr
p1019
(dp1020
g6
I-75
sg7
S'eth'
p1021
sg9
S'00:03:52:5D:18:60'
p1022
sba(isingleMsr
singleMsr
p1023
(dp1024
g6
I-76
sg7
S'public'
p1025
sg9
S'00:03:52:5D:18:61'
p1026
sba(isingleMsr
singleMsr
p1027
(dp1028
g6
I-77
sg7
S'MOBILE-EAPSIM'
p1029
sg9
S'00:03:52:5D:18:62'
p1030
sbasS'id'
p1031
I14
sS'label'
p1032
S'cube_room'
p1033
sa(dp1034
S'measurements'
p1035
(lp1036
(isingleMsr
singleMsr
p1037
(dp1038
g6
I-56
sg7
S'eth'
p1039
sg9
S'00:0F:61:86:EC:20'
p1040
sba(isingleMsr
singleMsr
p1041
(dp1042
g6
I-55
sg7
S'public'
p1043
sg9
S'00:0F:61:86:EC:21'
p1044
sba(isingleMsr
singleMsr
p1045
(dp1046
g6
I-55
sg7
S'MOBILE-EAPSIM'
p1047
sg9
S'00:0F:61:86:EC:22'
p1048
sba(isingleMsr
singleMsr
p1049
(dp1050
g6
I-55
sg7
S'eduroam'
p1051
sg9
S'00:0F:61:86:EC:23'
p1052
sba(isingleMsr
singleMsr
p1053
(dp1054
g6
I-73
sg7
S'eth'
p1055
sg9
S'00:03:52:5C:26:C0'
p1056
sba(isingleMsr
singleMsr
p1057
(dp1058
g6
I-73
sg7
S'public'
p1059
sg9
S'00:03:52:5C:26:C1'
p1060
sba(isingleMsr
singleMsr
p1061
(dp1062
g6
I-81
sg7
S'eth'
p1063
sg9
S'00:0F:61:59:DB:80'
p1064
sba(isingleMsr
singleMsr
p1065
(dp1066
g6
I-82
sg7
S'public'
p1067
sg9
S'00:0F:61:59:DB:81'
p1068
sba(isingleMsr
singleMsr
p1069
(dp1070
g6
I-82
sg7
S'MOBILE-EAPSIM'
p1071
sg9
S'00:0F:61:59:DB:82'
p1072
sba(isingleMsr
singleMsr
p1073
(dp1074
g6
I-83
sg7
S'eduroam'
p1075
sg9
S'00:0F:61:59:DB:83'
p1076
sba(isingleMsr
singleMsr
p1077
(dp1078
g6
I-76
sg7
S'Firelab'
p1079
sg9
S'42:C8:A0:41:42:80'
p1080
sba(isingleMsr
singleMsr
p1081
(dp1082
g6
I-73
sg7
S'public-5'
p1083
sg9
S'00:0F:61:88:22:F7'
p1084
sba(isingleMsr
singleMsr
p1085
(dp1086
g6
I-74
sg7
S'eth-5'
p1087
sg9
S'00:0F:61:88:22:F8'
p1088
sbasS'id'
p1089
I15
sS'label'
p1090
S'robotroom'
p1091
sa(dp1092
S'measurements'
p1093
(lp1094
(isingleMsr
singleMsr
p1095
(dp1096
g6
I-53
sg7
S'eth'
p1097
sg9
S'00:0F:61:86:EC:20'
p1098
sba(isingleMsr
singleMsr
p1099
(dp1100
g6
I-53
sg7
S'public'
p1101
sg9
S'00:0F:61:86:EC:21'
p1102
sba(isingleMsr
singleMsr
p1103
(dp1104
g6
I-54
sg7
S'MOBILE-EAPSIM'
p1105
sg9
S'00:0F:61:86:EC:22'
p1106
sba(isingleMsr
singleMsr
p1107
(dp1108
g6
I-53
sg7
S'eduroam'
p1109
sg9
S'00:0F:61:86:EC:23'
p1110
sba(isingleMsr
singleMsr
p1111
(dp1112
g6
I-83
sg7
S'eth'
p1113
sg9
S'00:03:52:5C:28:B0'
p1114
sba(isingleMsr
singleMsr
p1115
(dp1116
g6
I-81
sg7
S'public'
p1117
sg9
S'00:03:52:5C:28:B1'
p1118
sba(isingleMsr
singleMsr
p1119
(dp1120
g6
I-82
sg7
S'MOBILE-EAPSIM'
p1121
sg9
S'00:03:52:5C:28:B2'
p1122
sba(isingleMsr
singleMsr
p1123
(dp1124
g6
I-77
sg7
S'Firelab'
p1125
sg9
S'42:C8:A0:41:42:80'
p1126
sba(isingleMsr
singleMsr
p1127
(dp1128
g6
I-86
sg7
S'public-5'
p1129
sg9
S'00:03:52:B2:E8:57'
p1130
sba(isingleMsr
singleMsr
p1131
(dp1132
g6
I-87
sg7
S'eth-5'
p1133
sg9
S'00:03:52:B2:E8:58'
p1134
sba(isingleMsr
singleMsr
p1135
(dp1136
g6
I-74
sg7
S'public-5'
p1137
sg9
S'00:0F:61:88:22:F7'
p1138
sba(isingleMsr
singleMsr
p1139
(dp1140
g6
I-74
sg7
S'eth-5'
p1141
sg9
S'00:0F:61:88:22:F8'
p1142
sbasS'id'
p1143
I16
sS'label'
p1144
S'robotroom'
p1145
sa(dp1146
S'measurements'
p1147
(lp1148
(isingleMsr
singleMsr
p1149
(dp1150
g6
I-51
sg7
S'eth'
p1151
sg9
S'00:0F:61:86:EC:20'
p1152
sba(isingleMsr
singleMsr
p1153
(dp1154
g6
I-51
sg7
S'public'
p1155
sg9
S'00:0F:61:86:EC:21'
p1156
sba(isingleMsr
singleMsr
p1157
(dp1158
g6
I-51
sg7
S'MOBILE-EAPSIM'
p1159
sg9
S'00:0F:61:86:EC:22'
p1160
sba(isingleMsr
singleMsr
p1161
(dp1162
g6
I-51
sg7
S'eduroam'
p1163
sg9
S'00:0F:61:86:EC:23'
p1164
sba(isingleMsr
singleMsr
p1165
(dp1166
g6
I-82
sg7
S'eth'
p1167
sg9
S'00:03:52:5C:28:B0'
p1168
sba(isingleMsr
singleMsr
p1169
(dp1170
g6
I-81
sg7
S'public'
p1171
sg9
S'00:03:52:5C:28:B1'
p1172
sba(isingleMsr
singleMsr
p1173
(dp1174
g6
I-82
sg7
S'MOBILE-EAPSIM'
p1175
sg9
S'00:03:52:5C:28:B2'
p1176
sba(isingleMsr
singleMsr
p1177
(dp1178
g6
I-82
sg7
S'eduroam'
p1179
sg9
S'00:03:52:5C:28:B3'
p1180
sba(isingleMsr
singleMsr
p1181
(dp1182
g6
I-80
sg7
S'eth'
p1183
sg9
S'00:03:52:5C:26:C0'
p1184
sba(isingleMsr
singleMsr
p1185
(dp1186
g6
I-79
sg7
S'public'
p1187
sg9
S'00:03:52:5C:26:C1'
p1188
sba(isingleMsr
singleMsr
p1189
(dp1190
g6
I-78
sg7
S'MOBILE-EAPSIM'
p1191
sg9
S'00:03:52:5C:26:C2'
p1192
sba(isingleMsr
singleMsr
p1193
(dp1194
g6
I-78
sg7
S'eduroam'
p1195
sg9
S'00:03:52:5C:26:C3'
p1196
sba(isingleMsr
singleMsr
p1197
(dp1198
g6
I-79
sg7
S'eth'
p1199
sg9
S'00:0F:61:59:DB:80'
p1200
sba(isingleMsr
singleMsr
p1201
(dp1202
g6
I-80
sg7
S'public'
p1203
sg9
S'00:0F:61:59:DB:81'
p1204
sba(isingleMsr
singleMsr
p1205
(dp1206
g6
I-78
sg7
S'MOBILE-EAPSIM'
p1207
sg9
S'00:0F:61:59:DB:82'
p1208
sba(isingleMsr
singleMsr
p1209
(dp1210
g6
I-78
sg7
S'eduroam'
p1211
sg9
S'00:0F:61:59:DB:83'
p1212
sba(isingleMsr
singleMsr
p1213
(dp1214
g6
I-76
sg7
S'Firelab'
p1215
sg9
S'42:C8:A0:41:42:80'
p1216
sbasS'id'
p1217
I17
sS'label'
p1218
S'robotroom'
p1219
sa(dp1220
S'measurements'
p1221
(lp1222
(isingleMsr
singleMsr
p1223
(dp1224
g6
I-54
sg7
S'eth'
p1225
sg9
S'00:0F:61:86:EC:20'
p1226
sba(isingleMsr
singleMsr
p1227
(dp1228
g6
I-55
sg7
S'public'
p1229
sg9
S'00:0F:61:86:EC:21'
p1230
sba(isingleMsr
singleMsr
p1231
(dp1232
g6
I-55
sg7
S'MOBILE-EAPSIM'
p1233
sg9
S'00:0F:61:86:EC:22'
p1234
sba(isingleMsr
singleMsr
p1235
(dp1236
g6
I-55
sg7
S'eduroam'
p1237
sg9
S'00:0F:61:86:EC:23'
p1238
sba(isingleMsr
singleMsr
p1239
(dp1240
g6
I-79
sg7
S'eth'
p1241
sg9
S'00:03:52:5C:26:C0'
p1242
sba(isingleMsr
singleMsr
p1243
(dp1244
g6
I-80
sg7
S'public'
p1245
sg9
S'00:03:52:5C:26:C1'
p1246
sba(isingleMsr
singleMsr
p1247
(dp1248
g6
I-82
sg7
S'eth'
p1249
sg9
S'00:03:52:5C:28:B0'
p1250
sba(isingleMsr
singleMsr
p1251
(dp1252
g6
I-82
sg7
S'public'
p1253
sg9
S'00:03:52:5C:28:B1'
p1254
sba(isingleMsr
singleMsr
p1255
(dp1256
g6
I-81
sg7
S'MOBILE-EAPSIM'
p1257
sg9
S'00:03:52:5C:28:B2'
p1258
sba(isingleMsr
singleMsr
p1259
(dp1260
g6
I-77
sg7
S'MOBILE-EAPSIM'
p1261
sg9
S'00:03:52:5C:26:C2'
p1262
sba(isingleMsr
singleMsr
p1263
(dp1264
g6
I-76
sg7
S'eduroam'
p1265
sg9
S'00:03:52:5C:26:C3'
p1266
sbasS'id'
p1267
I18
sS'label'
p1268
S'robotroom'
p1269
sa(dp1270
S'measurements'
p1271
(lp1272
(isingleMsr
singleMsr
p1273
(dp1274
g6
I-82
sg7
S'eduroam'
p1275
sg9
S'00:03:52:5C:28:B3'
p1276
sba(isingleMsr
singleMsr
p1277
(dp1278
g6
I-80
sg7
S'eth'
p1279
sg9
S'00:03:52:5C:26:C0'
p1280
sba(isingleMsr
singleMsr
p1281
(dp1282
g6
I-79
sg7
S'public'
p1283
sg9
S'00:03:52:5C:26:C1'
p1284
sba(isingleMsr
singleMsr
p1285
(dp1286
g6
I-85
sg7
S'eth'
p1287
sg9
S'00:0F:61:5E:5D:50'
p1288
sba(isingleMsr
singleMsr
p1289
(dp1290
g6
I-86
sg7
S'public'
p1291
sg9
S'00:0F:61:5E:5D:51'
p1292
sba(isingleMsr
singleMsr
p1293
(dp1294
g6
I-80
sg7
S'MOBILE-EAPSIM'
p1295
sg9
S'00:03:52:5C:26:C2'
p1296
sba(isingleMsr
singleMsr
p1297
(dp1298
g6
I-55
sg7
S'public'
p1299
sg9
S'00:0F:61:86:EC:21'
p1300
sba(isingleMsr
singleMsr
p1301
(dp1302
g6
I-56
sg7
S'eth'
p1303
sg9
S'00:0F:61:86:EC:20'
p1304
sba(isingleMsr
singleMsr
p1305
(dp1306
g6
I-79
sg7
S'eth'
p1307
sg9
S'00:0F:61:59:DB:80'
p1308
sba(isingleMsr
singleMsr
p1309
(dp1310
g6
I-79
sg7
S'public'
p1311
sg9
S'00:0F:61:59:DB:81'
p1312
sba(isingleMsr
singleMsr
p1313
(dp1314
g6
I-79
sg7
S'MOBILE-EAPSIM'
p1315
sg9
S'00:0F:61:59:DB:82'
p1316
sba(isingleMsr
singleMsr
p1317
(dp1318
g6
I-82
sg7
S'MOBILE-EAPSIM'
p1319
sg9
S'00:0F:61:86:EC:22'
p1320
sba(isingleMsr
singleMsr
p1321
(dp1322
g6
I-55
sg7
S'eduroam'
p1323
sg9
S'00:0F:61:86:EC:23'
p1324
sba(isingleMsr
singleMsr
p1325
(dp1326
g6
I-74
sg7
S'public-5'
p1327
sg9
S'00:0F:61:88:22:F7'
p1328
sba(isingleMsr
singleMsr
p1329
(dp1330
g6
I-74
sg7
S'eth-5'
p1331
sg9
S'00:0F:61:88:22:F8'
p1332
sbasS'id'
p1333
I19
sS'label'
p1334
S'robotroom'
p1335
sa(dp1336
S'measurements'
p1337
(lp1338
(isingleMsr
singleMsr
p1339
(dp1340
g6
I-67
sg7
S'eth'
p1341
sg9
S'00:0F:61:1A:22:B0'
p1342
sba(isingleMsr
singleMsr
p1343
(dp1344
g6
I-66
sg7
S'public'
p1345
sg9
S'00:0F:61:1A:22:B1'
p1346
sba(isingleMsr
singleMsr
p1347
(dp1348
g6
I-66
sg7
S'MOBILE-EAPSIM'
p1349
sg9
S'00:0F:61:1A:22:B2'
p1350
sba(isingleMsr
singleMsr
p1351
(dp1352
g6
I-66
sg7
S'eduroam'
p1353
sg9
S'00:0F:61:1A:22:B3'
p1354
sba(isingleMsr
singleMsr
p1355
(dp1356
g6
I-69
sg7
S'eth'
p1357
sg9
S'00:0F:61:19:2A:70'
p1358
sba(isingleMsr
singleMsr
p1359
(dp1360
g6
I-69
sg7
S'public'
p1361
sg9
S'00:0F:61:19:2A:71'
p1362
sba(isingleMsr
singleMsr
p1363
(dp1364
g6
I-69
sg7
S'MOBILE-EAPSIM'
p1365
sg9
S'00:0F:61:19:2A:72'
p1366
sba(isingleMsr
singleMsr
p1367
(dp1368
g6
I-68
sg7
S'eduroam'
p1369
sg9
S'00:0F:61:19:2A:73'
p1370
sba(isingleMsr
singleMsr
p1371
(dp1372
g6
I-87
sg7
S'eth'
p1373
sg9
S'00:13:49:D4:86:D6'
p1374
sba(isingleMsr
singleMsr
p1375
(dp1376
g6
I-79
sg7
S'public'
p1377
sg9
S'00:0F:61:1A:15:71'
p1378
sba(isingleMsr
singleMsr
p1379
(dp1380
g6
I-79
sg7
S'MOBILE-EAPSIM'
p1381
sg9
S'00:0F:61:1A:15:72'
p1382
sba(isingleMsr
singleMsr
p1383
(dp1384
g6
I-79
sg7
S'eduroam'
p1385
sg9
S'00:0F:61:1A:15:73'
p1386
sba(isingleMsr
singleMsr
p1387
(dp1388
g6
I-79
sg7
S'bxn-20012'
p1389
sg9
S'00:24:93:69:39:40'
p1390
sba(isingleMsr
singleMsr
p1391
(dp1392
g6
I-82
sg7
S'public-5'
p1393
sg9
S'00:0F:61:F4:EC:67'
p1394
sba(isingleMsr
singleMsr
p1395
(dp1396
g6
I-77
sg7
S'eth-5'
p1397
sg9
S'00:0F:61:F4:EC:68'
p1398
sbasS'id'
p1399
I20
sS'label'
p1400
S'j44'
p1401
sa(dp1402
S'measurements'
p1403
(lp1404
(isingleMsr
singleMsr
p1405
(dp1406
g6
I-65
sg7
S'eth'
p1407
sg9
S'00:0F:61:1A:22:B0'
p1408
sba(isingleMsr
singleMsr
p1409
(dp1410
g6
I-66
sg7
S'public'
p1411
sg9
S'00:0F:61:1A:22:B1'
p1412
sba(isingleMsr
singleMsr
p1413
(dp1414
g6
I-66
sg7
S'MOBILE-EAPSIM'
p1415
sg9
S'00:0F:61:1A:22:B2'
p1416
sba(isingleMsr
singleMsr
p1417
(dp1418
g6
I-66
sg7
S'eduroam'
p1419
sg9
S'00:0F:61:1A:22:B3'
p1420
sba(isingleMsr
singleMsr
p1421
(dp1422
g6
I-81
sg7
S'eth'
p1423
sg9
S'00:0F:61:1A:21:70'
p1424
sba(isingleMsr
singleMsr
p1425
(dp1426
g6
I-81
sg7
S'public'
p1427
sg9
S'00:0F:61:1A:21:71'
p1428
sba(isingleMsr
singleMsr
p1429
(dp1430
g6
I-81
sg7
S'MOBILE-EAPSIM'
p1431
sg9
S'00:0F:61:1A:21:72'
p1432
sba(isingleMsr
singleMsr
p1433
(dp1434
g6
I-81
sg7
S'eduroam'
p1435
sg9
S'00:0F:61:1A:21:73'
p1436
sba(isingleMsr
singleMsr
p1437
(dp1438
g6
I-71
sg7
S'eth'
p1439
sg9
S'00:0F:61:19:2A:70'
p1440
sba(isingleMsr
singleMsr
p1441
(dp1442
g6
I-70
sg7
S'public'
p1443
sg9
S'00:0F:61:19:2A:71'
p1444
sba(isingleMsr
singleMsr
p1445
(dp1446
g6
I-71
sg7
S'MOBILE-EAPSIM'
p1447
sg9
S'00:0F:61:19:2A:72'
p1448
sba(isingleMsr
singleMsr
p1449
(dp1450
g6
I-71
sg7
S'eduroam'
p1451
sg9
S'00:0F:61:19:2A:73'
p1452
sba(isingleMsr
singleMsr
p1453
(dp1454
g6
I-80
sg7
S'eth'
p1455
sg9
S'00:03:52:5D:2D:70'
p1456
sba(isingleMsr
singleMsr
p1457
(dp1458
g6
I-81
sg7
S'public'
p1459
sg9
S'00:03:52:5D:2D:71'
p1460
sba(isingleMsr
singleMsr
p1461
(dp1462
g6
I-80
sg7
S'MOBILE-EAPSIM'
p1463
sg9
S'00:03:52:5D:2D:72'
p1464
sba(isingleMsr
singleMsr
p1465
(dp1466
g6
I-80
sg7
S'eth'
p1467
sg9
S'00:0F:61:1A:15:70'
p1468
sba(isingleMsr
singleMsr
p1469
(dp1470
g6
I-81
sg7
S'MOBILE-EAPSIM'
p1471
sg9
S'00:0F:61:1A:15:72'
p1472
sbasS'id'
p1473
I21
sS'label'
p1474
S'j44'
p1475
sa(dp1476
S'measurements'
p1477
(lp1478
(isingleMsr
singleMsr
p1479
(dp1480
g6
I-64
sg7
S'eth'
p1481
sg9
S'00:0F:61:1A:22:B0'
p1482
sba(isingleMsr
singleMsr
p1483
(dp1484
g6
I-66
sg7
S'public'
p1485
sg9
S'00:0F:61:1A:22:B1'
p1486
sba(isingleMsr
singleMsr
p1487
(dp1488
g6
I-64
sg7
S'MOBILE-EAPSIM'
p1489
sg9
S'00:0F:61:1A:22:B2'
p1490
sba(isingleMsr
singleMsr
p1491
(dp1492
g6
I-65
sg7
S'eduroam'
p1493
sg9
S'00:0F:61:1A:22:B3'
p1494
sba(isingleMsr
singleMsr
p1495
(dp1496
g6
I-70
sg7
S'eth'
p1497
sg9
S'00:0F:61:19:2A:70'
p1498
sba(isingleMsr
singleMsr
p1499
(dp1500
g6
I-70
sg7
S'public'
p1501
sg9
S'00:0F:61:19:2A:71'
p1502
sba(isingleMsr
singleMsr
p1503
(dp1504
g6
I-70
sg7
S'MOBILE-EAPSIM'
p1505
sg9
S'00:0F:61:19:2A:72'
p1506
sba(isingleMsr
singleMsr
p1507
(dp1508
g6
I-70
sg7
S'eduroam'
p1509
sg9
S'00:0F:61:19:2A:73'
p1510
sba(isingleMsr
singleMsr
p1511
(dp1512
g6
I-81
sg7
S'eth'
p1513
sg9
S'00:03:52:5D:2D:70'
p1514
sba(isingleMsr
singleMsr
p1515
(dp1516
g6
I-82
sg7
S'public'
p1517
sg9
S'00:03:52:5D:2D:71'
p1518
sba(isingleMsr
singleMsr
p1519
(dp1520
g6
I-80
sg7
S'MOBILE-EAPSIM'
p1521
sg9
S'00:03:52:5D:2D:72'
p1522
sba(isingleMsr
singleMsr
p1523
(dp1524
g6
I-80
sg7
S'eth'
p1525
sg9
S'00:0F:61:1A:15:70'
p1526
sba(isingleMsr
singleMsr
p1527
(dp1528
g6
I-80
sg7
S'public'
p1529
sg9
S'00:0F:61:1A:15:71'
p1530
sba(isingleMsr
singleMsr
p1531
(dp1532
g6
I-79
sg7
S'MOBILE-EAPSIM'
p1533
sg9
S'00:0F:61:1A:15:72'
p1534
sba(isingleMsr
singleMsr
p1535
(dp1536
g6
I-80
sg7
S'eduroam'
p1537
sg9
S'00:0F:61:1A:15:73'
p1538
sbasS'id'
p1539
I22
sS'label'
p1540
S'j44'
p1541
sa(dp1542
S'measurements'
p1543
(lp1544
(isingleMsr
singleMsr
p1545
(dp1546
g6
I-66
sg7
S'eth'
p1547
sg9
S'00:0F:61:1A:22:B0'
p1548
sba(isingleMsr
singleMsr
p1549
(dp1550
g6
I-66
sg7
S'public'
p1551
sg9
S'00:0F:61:1A:22:B1'
p1552
sba(isingleMsr
singleMsr
p1553
(dp1554
g6
I-66
sg7
S'MOBILE-EAPSIM'
p1555
sg9
S'00:0F:61:1A:22:B2'
p1556
sba(isingleMsr
singleMsr
p1557
(dp1558
g6
I-81
sg7
S'eth'
p1559
sg9
S'00:0F:61:1A:21:70'
p1560
sba(isingleMsr
singleMsr
p1561
(dp1562
g6
I-82
sg7
S'public'
p1563
sg9
S'00:0F:61:1A:21:71'
p1564
sba(isingleMsr
singleMsr
p1565
(dp1566
g6
I-82
sg7
S'MOBILE-EAPSIM'
p1567
sg9
S'00:0F:61:1A:21:72'
p1568
sba(isingleMsr
singleMsr
p1569
(dp1570
g6
I-66
sg7
S'eduroam'
p1571
sg9
S'00:0F:61:1A:22:B3'
p1572
sba(isingleMsr
singleMsr
p1573
(dp1574
g6
I-82
sg7
S'eduroam'
p1575
sg9
S'00:0F:61:1A:21:73'
p1576
sba(isingleMsr
singleMsr
p1577
(dp1578
g6
I-71
sg7
S'eth'
p1579
sg9
S'00:0F:61:19:2A:70'
p1580
sba(isingleMsr
singleMsr
p1581
(dp1582
g6
I-79
sg7
S'public'
p1583
sg9
S'00:0F:61:19:2A:71'
p1584
sba(isingleMsr
singleMsr
p1585
(dp1586
g6
I-70
sg7
S'MOBILE-EAPSIM'
p1587
sg9
S'00:0F:61:19:2A:72'
p1588
sba(isingleMsr
singleMsr
p1589
(dp1590
g6
I-70
sg7
S'eduroam'
p1591
sg9
S'00:0F:61:19:2A:73'
p1592
sba(isingleMsr
singleMsr
p1593
(dp1594
g6
I-74
sg7
S'eth'
p1595
sg9
S'00:0F:61:1A:15:70'
p1596
sba(isingleMsr
singleMsr
p1597
(dp1598
g6
I-75
sg7
S'public'
p1599
sg9
S'00:0F:61:1A:15:71'
p1600
sba(isingleMsr
singleMsr
p1601
(dp1602
g6
I-80
sg7
S'MOBILE-EAPSIM'
p1603
sg9
S'00:0F:61:1A:15:72'
p1604
sba(isingleMsr
singleMsr
p1605
(dp1606
g6
I-79
sg7
S'eduroam'
p1607
sg9
S'00:0F:61:1A:15:73'
p1608
sbasS'id'
p1609
I23
sS'label'
p1610
S'j44'
p1611
sa(dp1612
S'measurements'
p1613
(lp1614
(isingleMsr
singleMsr
p1615
(dp1616
g6
I-64
sg7
S'eth'
p1617
sg9
S'00:0F:61:1A:22:B0'
p1618
sba(isingleMsr
singleMsr
p1619
(dp1620
g6
I-67
sg7
S'public'
p1621
sg9
S'00:0F:61:1A:22:B1'
p1622
sba(isingleMsr
singleMsr
p1623
(dp1624
g6
I-66
sg7
S'MOBILE-EAPSIM'
p1625
sg9
S'00:0F:61:1A:22:B2'
p1626
sba(isingleMsr
singleMsr
p1627
(dp1628
g6
I-67
sg7
S'eduroam'
p1629
sg9
S'00:0F:61:1A:22:B3'
p1630
sba(isingleMsr
singleMsr
p1631
(dp1632
g6
I-71
sg7
S'public'
p1633
sg9
S'00:0F:61:19:2A:71'
p1634
sba(isingleMsr
singleMsr
p1635
(dp1636
g6
I-70
sg7
S'MOBILE-EAPSIM'
p1637
sg9
S'00:0F:61:19:2A:72'
p1638
sba(isingleMsr
singleMsr
p1639
(dp1640
g6
I-70
sg7
S'eduroam'
p1641
sg9
S'00:0F:61:19:2A:73'
p1642
sba(isingleMsr
singleMsr
p1643
(dp1644
g6
I-69
sg7
S'eth'
p1645
sg9
S'00:0F:61:19:2A:70'
p1646
sba(isingleMsr
singleMsr
p1647
(dp1648
g6
I-79
sg7
S'MOBILE-EAPSIM'
p1649
sg9
S'00:03:52:5D:2D:72'
p1650
sba(isingleMsr
singleMsr
p1651
(dp1652
g6
I-79
sg7
S'eduroam'
p1653
sg9
S'00:03:52:5D:2D:73'
p1654
sba(isingleMsr
singleMsr
p1655
(dp1656
g6
I-81
sg7
S'eth'
p1657
sg9
S'00:03:52:5D:2D:70'
p1658
sba(isingleMsr
singleMsr
p1659
(dp1660
g6
I-81
sg7
S'public'
p1661
sg9
S'00:03:52:5D:2D:71'
p1662
sba(isingleMsr
singleMsr
p1663
(dp1664
g6
I-81
sg7
S'eth'
p1665
sg9
S'00:0F:61:1A:15:70'
p1666
sba(isingleMsr
singleMsr
p1667
(dp1668
g6
I-80
sg7
S'public'
p1669
sg9
S'00:0F:61:1A:15:71'
p1670
sba(isingleMsr
singleMsr
p1671
(dp1672
g6
I-79
sg7
S'MOBILE-EAPSIM'
p1673
sg9
S'00:0F:61:1A:15:72'
p1674
sba(isingleMsr
singleMsr
p1675
(dp1676
g6
I-80
sg7
S'eduroam'
p1677
sg9
S'00:0F:61:1A:15:73'
p1678
sbasS'id'
p1679
I24
sS'label'
p1680
S'j44'
p1681
sa.